; ModuleID = 'main.cpp'
source_filename = "main.cpp"
target datalayout = "e-m:e-p270:32:32-p271:32:32-p272:64:64-i64:64-f80:128-n8:16:32:64-S128"
target triple = "x86_64-pc-linux-gnu"

%"class.std::ios_base::Init" = type { i8 }
%"class.std::basic_ostream" = type { i32 (...)**, %"class.std::basic_ios" }
%"class.std::basic_ios" = type { %"class.std::ios_base", %"class.std::basic_ostream"*, i8, i8, %"class.std::basic_streambuf"*, %"class.std::ctype"*, %"class.std::num_put"*, %"class.std::num_get"* }
%"class.std::ios_base" = type { i32 (...)**, i64, i64, i32, i32, i32, %"struct.std::ios_base::_Callback_list"*, %"struct.std::ios_base::_Words", [8 x %"struct.std::ios_base::_Words"], i32, %"struct.std::ios_base::_Words"*, %"class.std::locale" }
%"struct.std::ios_base::_Callback_list" = type { %"struct.std::ios_base::_Callback_list"*, void (i32, %"class.std::ios_base"*, i32)*, i32, i32 }
%"struct.std::ios_base::_Words" = type { i8*, i64 }
%"class.std::locale" = type { %"class.std::locale::_Impl"* }
%"class.std::locale::_Impl" = type { i32, %"class.std::locale::facet"**, i64, %"class.std::locale::facet"**, i8** }
%"class.std::locale::facet" = type <{ i32 (...)**, i32, [4 x i8] }>
%"class.std::basic_streambuf" = type { i32 (...)**, i8*, i8*, i8*, i8*, i8*, i8*, %"class.std::locale" }
%"class.std::ctype" = type <{ %"class.std::locale::facet.base", [4 x i8], %struct.__locale_struct*, i8, [7 x i8], i32*, i32*, i16*, i8, [256 x i8], [256 x i8], i8, [6 x i8] }>
%"class.std::locale::facet.base" = type <{ i32 (...)**, i32 }>
%struct.__locale_struct = type { [13 x %struct.__locale_data*], i16*, i32*, i32*, [13 x i8*] }
%struct.__locale_data = type opaque
%"class.std::num_put" = type { %"class.std::locale::facet.base", [4 x i8] }
%"class.std::num_get" = type { %"class.std::locale::facet.base", [4 x i8] }
%"class.std::vector" = type { %"struct.std::_Vector_base" }
%"struct.std::_Vector_base" = type { %"struct.std::_Vector_base<int, std::allocator<int> >::_Vector_impl" }
%"struct.std::_Vector_base<int, std::allocator<int> >::_Vector_impl" = type { %"struct.std::_Vector_base<int, std::allocator<int> >::_Vector_impl_data" }
%"struct.std::_Vector_base<int, std::allocator<int> >::_Vector_impl_data" = type { i32*, i32*, i32* }
%"class.std::initializer_list" = type { i32*, i64 }
%"class.std::allocator" = type { i8 }
%"class.__gnu_cxx::__normal_iterator" = type { i32* }
%class.anon = type { i8 }
%"class.std::reverse_iterator" = type { %"class.__gnu_cxx::__normal_iterator" }
%"class.std::back_insert_iterator" = type { %"class.std::vector"* }
%class.anon.1 = type { i8 }
%"class.__gnu_cxx::new_allocator" = type { i8 }
%"struct.std::forward_iterator_tag" = type { i8 }
%"struct.std::random_access_iterator_tag" = type { i8 }
%"struct.std::integral_constant" = type { i8 }
%"struct.std::iterator.0" = type { i8 }
%"struct.std::iterator" = type { i8 }

$_ZNSaIiEC2Ev = comdat any

$_ZNSt6vectorIiSaIiEEC2ESt16initializer_listIiERKS0_ = comdat any

$_ZNSaIiED2Ev = comdat any

$_ZNSt6vectorIiSaIiEEC2Ev = comdat any

$_ZNSt6vectorIiSaIiEEC2EmRKS0_ = comdat any

$_ZNSt6vectorIiSaIiEE9push_backERKi = comdat any

$_ZNSt6vectorIiSaIiEE5beginEv = comdat any

$_ZNSt6vectorIiSaIiEE3endEv = comdat any

$_ZNSt6vectorIiSaIiEE6rbeginEv = comdat any

$_ZNSt6vectorIiSaIiEE4rendEv = comdat any

$_ZSt13back_inserterISt6vectorIiSaIiEEESt20back_insert_iteratorIT_ERS4_ = comdat any

$_ZN9__gnu_cxxneIPiSt6vectorIiSaIiEEEEbRKNS_17__normal_iteratorIT_T0_EESA_ = comdat any

$_ZNK9__gnu_cxx17__normal_iteratorIPiSt6vectorIiSaIiEEEdeEv = comdat any

$_ZN9__gnu_cxx17__normal_iteratorIPiSt6vectorIiSaIiEEEppEv = comdat any

$_ZNSt6vectorIiSaIiEED2Ev = comdat any

$_ZNSt12_Vector_baseIiSaIiEEC2Ev = comdat any

$_ZNSt12_Vector_baseIiSaIiEE12_Vector_implC2Ev = comdat any

$_ZNSt12_Vector_baseIiSaIiEE17_Vector_impl_dataC2Ev = comdat any

$_ZN9__gnu_cxx13new_allocatorIiEC2Ev = comdat any

$_ZN9__gnu_cxx13new_allocatorIiED2Ev = comdat any

$_ZNSt12_Vector_baseIiSaIiEEC2ERKS0_ = comdat any

$_ZNSt6vectorIiSaIiEE19_M_range_initializeIPKiEEvT_S5_St20forward_iterator_tag = comdat any

$_ZNKSt16initializer_listIiE5beginEv = comdat any

$_ZNKSt16initializer_listIiE3endEv = comdat any

$_ZNSt12_Vector_baseIiSaIiEED2Ev = comdat any

$_ZNSt12_Vector_baseIiSaIiEE12_Vector_implC2ERKS0_ = comdat any

$_ZN9__gnu_cxx13new_allocatorIiEC2ERKS1_ = comdat any

$_ZSt8distanceIPKiENSt15iterator_traitsIT_E15difference_typeES3_S3_ = comdat any

$_ZNSt12_Vector_baseIiSaIiEE11_M_allocateEm = comdat any

$_ZNSt6vectorIiSaIiEE17_S_check_init_lenEmRKS0_ = comdat any

$_ZNSt12_Vector_baseIiSaIiEE19_M_get_Tp_allocatorEv = comdat any

$_ZSt22__uninitialized_copy_aIPKiPiiET0_T_S4_S3_RSaIT1_E = comdat any

$_ZSt10__distanceIPKiENSt15iterator_traitsIT_E15difference_typeES3_S3_St26random_access_iterator_tag = comdat any

$_ZSt19__iterator_categoryIPKiENSt15iterator_traitsIT_E17iterator_categoryERKS3_ = comdat any

$_ZNSt16allocator_traitsISaIiEE8allocateERS0_m = comdat any

$_ZN9__gnu_cxx13new_allocatorIiE8allocateEmPKv = comdat any

$_ZNK9__gnu_cxx13new_allocatorIiE8max_sizeEv = comdat any

$_ZNSt6vectorIiSaIiEE11_S_max_sizeERKS0_ = comdat any

$_ZNSaIiEC2ERKS_ = comdat any

$_ZNSt16allocator_traitsISaIiEE8max_sizeERKS0_ = comdat any

$_ZSt3minImERKT_S2_S2_ = comdat any

$__clang_call_terminate = comdat any

$_ZSt18uninitialized_copyIPKiPiET0_T_S4_S3_ = comdat any

$_ZNSt20__uninitialized_copyILb1EE13__uninit_copyIPKiPiEET0_T_S6_S5_ = comdat any

$_ZSt4copyIPKiPiET0_T_S4_S3_ = comdat any

$_ZSt14__copy_move_a2ILb0EPKiPiET1_T0_S4_S3_ = comdat any

$_ZSt12__miter_baseIPKiET_S2_ = comdat any

$_ZSt12__niter_wrapIPiET_RKS1_S1_ = comdat any

$_ZSt13__copy_move_aILb0EPKiPiET1_T0_S4_S3_ = comdat any

$_ZSt12__niter_baseIPKiET_S2_ = comdat any

$_ZSt12__niter_baseIPiET_S1_ = comdat any

$_ZNSt11__copy_moveILb0ELb1ESt26random_access_iterator_tagE8__copy_mIiEEPT_PKS3_S6_S4_ = comdat any

$_ZNKSt16initializer_listIiE4sizeEv = comdat any

$_ZNSt12_Vector_baseIiSaIiEE13_M_deallocateEPim = comdat any

$_ZNSt12_Vector_baseIiSaIiEE12_Vector_implD2Ev = comdat any

$_ZNSt16allocator_traitsISaIiEE10deallocateERS0_Pim = comdat any

$_ZN9__gnu_cxx13new_allocatorIiE10deallocateEPim = comdat any

$_ZSt8_DestroyIPiiEvT_S1_RSaIT0_E = comdat any

$_ZSt8_DestroyIPiEvT_S1_ = comdat any

$_ZNSt12_Destroy_auxILb1EE9__destroyIPiEEvT_S3_ = comdat any

$_ZNSt12_Vector_baseIiSaIiEEC2EmRKS0_ = comdat any

$_ZNSt6vectorIiSaIiEE21_M_default_initializeEm = comdat any

$_ZNSt12_Vector_baseIiSaIiEE17_M_create_storageEm = comdat any

$_ZSt27__uninitialized_default_n_aIPimiET_S1_T0_RSaIT1_E = comdat any

$_ZSt25__uninitialized_default_nIPimET_S1_T0_ = comdat any

$_ZNSt27__uninitialized_default_n_1ILb1EE18__uninit_default_nIPimEET_S3_T0_ = comdat any

$_ZSt6fill_nIPimiET_S1_T0_RKT1_ = comdat any

$_ZSt10__fill_n_aIPimiEN9__gnu_cxx11__enable_ifIXsr11__is_scalarIT1_EE7__valueET_E6__typeES4_T0_RKS3_ = comdat any

$_ZNSt16allocator_traitsISaIiEE9constructIiJRKiEEEvRS0_PT_DpOT0_ = comdat any

$_ZNSt6vectorIiSaIiEE17_M_realloc_insertIJRKiEEEvN9__gnu_cxx17__normal_iteratorIPiS1_EEDpOT_ = comdat any

$_ZN9__gnu_cxx13new_allocatorIiE9constructIiJRKiEEEvPT_DpOT0_ = comdat any

$_ZSt7forwardIRKiEOT_RNSt16remove_referenceIS2_E4typeE = comdat any

$_ZNKSt6vectorIiSaIiEE12_M_check_lenEmPKc = comdat any

$_ZN9__gnu_cxxmiIPiSt6vectorIiSaIiEEEENS_17__normal_iteratorIT_T0_E15difference_typeERKS8_SB_ = comdat any

$_ZNSt6vectorIiSaIiEE11_S_relocateEPiS2_S2_RS0_ = comdat any

$_ZNK9__gnu_cxx17__normal_iteratorIPiSt6vectorIiSaIiEEE4baseEv = comdat any

$_ZNKSt6vectorIiSaIiEE8max_sizeEv = comdat any

$_ZNKSt6vectorIiSaIiEE4sizeEv = comdat any

$_ZSt3maxImERKT_S2_S2_ = comdat any

$_ZNKSt12_Vector_baseIiSaIiEE19_M_get_Tp_allocatorEv = comdat any

$_ZNSt6vectorIiSaIiEE14_S_do_relocateEPiS2_S2_RS0_St17integral_constantIbLb1EE = comdat any

$_ZSt12__relocate_aIPiS0_SaIiEET0_T_S3_S2_RT1_ = comdat any

$_ZSt14__relocate_a_1IiiENSt9enable_ifIXsr3std24__is_bitwise_relocatableIT_EE5valueEPS1_E4typeES2_S2_S2_RSaIT0_E = comdat any

$_ZN9__gnu_cxx17__normal_iteratorIPiSt6vectorIiSaIiEEEC2ERKS1_ = comdat any

$_ZNSt16reverse_iteratorIN9__gnu_cxx17__normal_iteratorIPiSt6vectorIiSaIiEEEEEC2ES6_ = comdat any

$_ZNSt20back_insert_iteratorISt6vectorIiSaIiEEEC2ERS2_ = comdat any

$_ZSt11__addressofISt6vectorIiSaIiEEEPT_RS3_ = comdat any

$_ZStneIN9__gnu_cxx17__normal_iteratorIPiSt6vectorIiSaIiEEEEEbRKSt16reverse_iteratorIT_ESB_ = comdat any

$_ZNKSt16reverse_iteratorIN9__gnu_cxx17__normal_iteratorIPiSt6vectorIiSaIiEEEEEdeEv = comdat any

$_ZNSt20back_insert_iteratorISt6vectorIiSaIiEEEdeEv = comdat any

$_ZNSt20back_insert_iteratorISt6vectorIiSaIiEEEaSEOi = comdat any

$_ZNSt16reverse_iteratorIN9__gnu_cxx17__normal_iteratorIPiSt6vectorIiSaIiEEEEEppEv = comdat any

$_ZNSt20back_insert_iteratorISt6vectorIiSaIiEEEppEv = comdat any

$_ZSteqIN9__gnu_cxx17__normal_iteratorIPiSt6vectorIiSaIiEEEEEbRKSt16reverse_iteratorIT_ESB_ = comdat any

$_ZN9__gnu_cxxeqIPiSt6vectorIiSaIiEEEEbRKNS_17__normal_iteratorIT_T0_EESA_ = comdat any

$_ZNKSt16reverse_iteratorIN9__gnu_cxx17__normal_iteratorIPiSt6vectorIiSaIiEEEEE4baseEv = comdat any

$_ZN9__gnu_cxx17__normal_iteratorIPiSt6vectorIiSaIiEEEmmEv = comdat any

$_ZNSt6vectorIiSaIiEE9push_backEOi = comdat any

$_ZSt4moveIRiEONSt16remove_referenceIT_E4typeEOS2_ = comdat any

$_ZNSt6vectorIiSaIiEE12emplace_backIJiEEEvDpOT_ = comdat any

$_ZNSt16allocator_traitsISaIiEE9constructIiJiEEEvRS0_PT_DpOT0_ = comdat any

$_ZSt7forwardIiEOT_RNSt16remove_referenceIS0_E4typeE = comdat any

$_ZNSt6vectorIiSaIiEE17_M_realloc_insertIJiEEEvN9__gnu_cxx17__normal_iteratorIPiS1_EEDpOT_ = comdat any

$_ZN9__gnu_cxx13new_allocatorIiE9constructIiJiEEEvPT_DpOT0_ = comdat any

@_ZStL8__ioinit = internal global %"class.std::ios_base::Init" zeroinitializer, align 1
@__dso_handle = external hidden global i8
@__const.main.original = private unnamed_addr constant [41 x i32] [i32 90, i32 980, i32 52, i32 835, i32 60, i32 874, i32 985, i32 148, i32 236, i32 49, i32 35, i32 224, i32 134, i32 102, i32 15, i32 18, i32 919, i32 68, i32 922, i32 2, i32 975, i32 838, i32 139, i32 80, i32 15, i32 87, i32 128, i32 891, i32 978, i32 1012, i32 990, i32 16, i32 998, i32 1001, i32 988, i32 27, i32 875, i32 889, i32 48, i32 38, i32 479], align 16
@constinit = private constant [41 x i32] [i32 218, i32 225, i32 38, i32 71, i32 151, i32 157, i32 92, i32 9, i32 160, i32 177, i32 217, i32 167, i32 170, i32 23, i32 176, i32 184, i32 229, i32 42, i32 101, i32 222, i32 202, i32 108, i32 142, i32 232, i32 165, i32 181, i32 11, i32 152, i32 90, i32 6, i32 51, i32 35, i32 249, i32 94, i32 229, i32 94, i32 61, i32 143, i32 54, i32 13, i32 37], align 4
@_ZSt4cout = external dso_local global %"class.std::basic_ostream", align 8
@.str = private unnamed_addr constant [16 x i8] c"Almost there...\00", align 1
@.str.1 = private unnamed_addr constant [49 x i8] c"cannot create std::vector larger than max_size()\00", align 1
@.str.2 = private unnamed_addr constant [26 x i8] c"vector::_M_realloc_insert\00", align 1
@llvm.global_ctors = appending global [1 x { i32, void ()*, i8* }] [{ i32, void ()*, i8* } { i32 65535, void ()* @_GLOBAL__sub_I_main.cpp, i8* null }]

; Function Attrs: noinline uwtable
define internal void @__cxx_global_var_init() #0 section ".text.startup" {
  call void @_ZNSt8ios_base4InitC1Ev(%"class.std::ios_base::Init"* @_ZStL8__ioinit)
  %1 = call i32 @__cxa_atexit(void (i8*)* bitcast (void (%"class.std::ios_base::Init"*)* @_ZNSt8ios_base4InitD1Ev to void (i8*)*), i8* getelementptr inbounds (%"class.std::ios_base::Init", %"class.std::ios_base::Init"* @_ZStL8__ioinit, i32 0, i32 0), i8* @__dso_handle) #3
  ret void
}

declare dso_local void @_ZNSt8ios_base4InitC1Ev(%"class.std::ios_base::Init"*) unnamed_addr #1

; Function Attrs: nounwind
declare dso_local void @_ZNSt8ios_base4InitD1Ev(%"class.std::ios_base::Init"*) unnamed_addr #2

; Function Attrs: nounwind
declare dso_local i32 @__cxa_atexit(void (i8*)*, i8*, i8*) #3

; Function Attrs: noinline norecurse optnone uwtable
define dso_local i32 @main(i32 %0, i8** %1) #4 personality i8* bitcast (i32 (...)* @__gxx_personality_v0 to i8*) {
  %3 = alloca i32, align 4
  %4 = alloca i32, align 4
  %5 = alloca i8**, align 8
  %6 = alloca i32, align 4
  %7 = alloca [41 x i32], align 16
  %8 = alloca %"class.std::vector", align 8
  %9 = alloca %"class.std::initializer_list", align 8
  %10 = alloca [41 x i32], align 4
  %11 = alloca %"class.std::allocator", align 1
  %12 = alloca i8*
  %13 = alloca i32
  %14 = alloca i32, align 4
  %15 = alloca %"class.std::vector", align 8
  %16 = alloca %"class.std::vector", align 8
  %17 = alloca %"class.std::allocator", align 1
  %18 = alloca i32, align 4
  %19 = alloca %"class.__gnu_cxx::__normal_iterator", align 8
  %20 = alloca %"class.__gnu_cxx::__normal_iterator", align 8
  %21 = alloca %class.anon, align 1
  %22 = alloca %class.anon, align 1
  %23 = alloca %"class.std::reverse_iterator", align 8
  %24 = alloca %"class.std::reverse_iterator", align 8
  %25 = alloca %"class.__gnu_cxx::__normal_iterator", align 8
  %26 = alloca %"class.std::back_insert_iterator", align 8
  %27 = alloca %class.anon.1, align 1
  %28 = alloca %"class.std::back_insert_iterator", align 8
  %29 = alloca %"class.std::vector"*, align 8
  %30 = alloca %"class.__gnu_cxx::__normal_iterator", align 8
  %31 = alloca %"class.__gnu_cxx::__normal_iterator", align 8
  %32 = alloca i8, align 1
  store i32 0, i32* %3, align 4
  store i32 %0, i32* %4, align 4
  store i8** %1, i8*** %5, align 8
  store volatile i32 2, i32* %6, align 4
  %33 = bitcast [41 x i32]* %7 to i8*
  call void @llvm.memcpy.p0i8.p0i8.i64(i8* align 16 %33, i8* align 16 bitcast ([41 x i32]* @__const.main.original to i8*), i64 164, i1 false)
  %34 = getelementptr inbounds [41 x i32], [41 x i32]* %10, i64 0, i64 0
  %35 = bitcast [41 x i32]* %10 to i8*
  call void @llvm.memcpy.p0i8.p0i8.i64(i8* align 4 %35, i8* align 4 bitcast ([41 x i32]* @constinit to i8*), i64 164, i1 false)
  %36 = getelementptr inbounds %"class.std::initializer_list", %"class.std::initializer_list"* %9, i32 0, i32 0
  %37 = getelementptr inbounds [41 x i32], [41 x i32]* %10, i64 0, i64 0
  store i32* %37, i32** %36, align 8
  %38 = getelementptr inbounds %"class.std::initializer_list", %"class.std::initializer_list"* %9, i32 0, i32 1
  store i64 41, i64* %38, align 8
  call void @_ZNSaIiEC2Ev(%"class.std::allocator"* %11) #3
  %39 = bitcast %"class.std::initializer_list"* %9 to { i32*, i64 }*
  %40 = getelementptr inbounds { i32*, i64 }, { i32*, i64 }* %39, i32 0, i32 0
  %41 = load i32*, i32** %40, align 8
  %42 = getelementptr inbounds { i32*, i64 }, { i32*, i64 }* %39, i32 0, i32 1
  %43 = load i64, i64* %42, align 8
  invoke void @_ZNSt6vectorIiSaIiEEC2ESt16initializer_listIiERKS0_(%"class.std::vector"* %8, i32* %41, i64 %43, %"class.std::allocator"* dereferenceable(1) %11)
          to label %44 unwind label %60

44:                                               ; preds = %2
  call void @_ZNSaIiED2Ev(%"class.std::allocator"* %11) #3
  store i32 32, i32* %14, align 4
  call void @_ZNSt6vectorIiSaIiEEC2Ev(%"class.std::vector"* %15) #3
  call void @_ZNSaIiEC2Ev(%"class.std::allocator"* %17) #3
  invoke void @_ZNSt6vectorIiSaIiEEC2EmRKS0_(%"class.std::vector"* %16, i64 41, %"class.std::allocator"* dereferenceable(1) %17)
          to label %45 unwind label %64

45:                                               ; preds = %44
  call void @_ZNSaIiED2Ev(%"class.std::allocator"* %17) #3
  store i32 40, i32* %18, align 4
  br label %46

46:                                               ; preds = %57, %45
  %47 = load i32, i32* %18, align 4
  %48 = icmp sge i32 %47, 0
  br i1 %48, label %49, label %72

49:                                               ; preds = %46
  %50 = load i32, i32* %18, align 4
  %51 = sext i32 %50 to i64
  %52 = getelementptr inbounds [41 x i32], [41 x i32]* %7, i64 0, i64 %51
  %53 = load i32, i32* %52, align 4
  %54 = load i32, i32* %14, align 4
  %55 = xor i32 %53, %54
  store i32 %55, i32* %14, align 4
  invoke void @_ZNSt6vectorIiSaIiEE9push_backERKi(%"class.std::vector"* %15, i32* dereferenceable(4) %14)
          to label %56 unwind label %68

56:                                               ; preds = %49
  br label %57

57:                                               ; preds = %56
  %58 = load i32, i32* %18, align 4
  %59 = add nsw i32 %58, -1
  store i32 %59, i32* %18, align 4
  br label %46

60:                                               ; preds = %2
  %61 = landingpad { i8*, i32 }
          cleanup
  %62 = extractvalue { i8*, i32 } %61, 0
  store i8* %62, i8** %12, align 8
  %63 = extractvalue { i8*, i32 } %61, 1
  store i32 %63, i32* %13, align 4
  call void @_ZNSaIiED2Ev(%"class.std::allocator"* %11) #3
  br label %123

64:                                               ; preds = %44
  %65 = landingpad { i8*, i32 }
          cleanup
  %66 = extractvalue { i8*, i32 } %65, 0
  store i8* %66, i8** %12, align 8
  %67 = extractvalue { i8*, i32 } %65, 1
  store i32 %67, i32* %13, align 4
  call void @_ZNSaIiED2Ev(%"class.std::allocator"* %17) #3
  br label %122

68:                                               ; preds = %117, %115, %105, %85, %81, %72, %49
  %69 = landingpad { i8*, i32 }
          cleanup
  %70 = extractvalue { i8*, i32 } %69, 0
  store i8* %70, i8** %12, align 8
  %71 = extractvalue { i8*, i32 } %69, 1
  store i32 %71, i32* %13, align 4
  call void @_ZNSt6vectorIiSaIiEED2Ev(%"class.std::vector"* %16) #3
  br label %122

72:                                               ; preds = %46
  %73 = call i32* @_ZNSt6vectorIiSaIiEE5beginEv(%"class.std::vector"* %15) #3
  %74 = getelementptr inbounds %"class.__gnu_cxx::__normal_iterator", %"class.__gnu_cxx::__normal_iterator"* %19, i32 0, i32 0
  store i32* %73, i32** %74, align 8
  %75 = call i32* @_ZNSt6vectorIiSaIiEE3endEv(%"class.std::vector"* %15) #3
  %76 = getelementptr inbounds %"class.__gnu_cxx::__normal_iterator", %"class.__gnu_cxx::__normal_iterator"* %20, i32 0, i32 0
  store i32* %75, i32** %76, align 8
  %77 = getelementptr inbounds %"class.__gnu_cxx::__normal_iterator", %"class.__gnu_cxx::__normal_iterator"* %19, i32 0, i32 0
  %78 = load i32*, i32** %77, align 8
  %79 = getelementptr inbounds %"class.__gnu_cxx::__normal_iterator", %"class.__gnu_cxx::__normal_iterator"* %20, i32 0, i32 0
  %80 = load i32*, i32** %79, align 8
  invoke void @"_ZSt8for_eachIN9__gnu_cxx17__normal_iteratorIPiSt6vectorIiSaIiEEEEZ4mainE3$_0ET0_T_S9_S8_"(i32* %78, i32* %80)
          to label %81 unwind label %68

81:                                               ; preds = %72
  call void @_ZNSt6vectorIiSaIiEE6rbeginEv(%"class.std::reverse_iterator"* sret %23, %"class.std::vector"* %15) #3
  call void @_ZNSt6vectorIiSaIiEE4rendEv(%"class.std::reverse_iterator"* sret %24, %"class.std::vector"* %15) #3
  %82 = call i32* @_ZNSt6vectorIiSaIiEE5beginEv(%"class.std::vector"* %8) #3
  %83 = getelementptr inbounds %"class.__gnu_cxx::__normal_iterator", %"class.__gnu_cxx::__normal_iterator"* %25, i32 0, i32 0
  store i32* %82, i32** %83, align 8
  %84 = invoke %"class.std::vector"* @_ZSt13back_inserterISt6vectorIiSaIiEEESt20back_insert_iteratorIT_ERS4_(%"class.std::vector"* dereferenceable(24) %16)
          to label %85 unwind label %68

85:                                               ; preds = %81
  %86 = getelementptr inbounds %"class.std::back_insert_iterator", %"class.std::back_insert_iterator"* %26, i32 0, i32 0
  store %"class.std::vector"* %84, %"class.std::vector"** %86, align 8
  %87 = getelementptr inbounds %"class.__gnu_cxx::__normal_iterator", %"class.__gnu_cxx::__normal_iterator"* %25, i32 0, i32 0
  %88 = load i32*, i32** %87, align 8
  %89 = getelementptr inbounds %"class.std::back_insert_iterator", %"class.std::back_insert_iterator"* %26, i32 0, i32 0
  %90 = load %"class.std::vector"*, %"class.std::vector"** %89, align 8
  %91 = invoke %"class.std::vector"* @"_ZSt9transformISt16reverse_iteratorIN9__gnu_cxx17__normal_iteratorIPiSt6vectorIiSaIiEEEEES7_St20back_insert_iteratorIS6_EZ4mainE3$_1ET1_T_SD_T0_SC_T2_"(%"class.std::reverse_iterator"* %23, %"class.std::reverse_iterator"* %24, i32* %88, %"class.std::vector"* %90)
          to label %92 unwind label %68

92:                                               ; preds = %85
  %93 = getelementptr inbounds %"class.std::back_insert_iterator", %"class.std::back_insert_iterator"* %28, i32 0, i32 0
  store %"class.std::vector"* %91, %"class.std::vector"** %93, align 8
  %94 = load volatile i32, i32* %6, align 4
  %95 = icmp eq i32 %94, 1
  br i1 %95, label %96, label %115

96:                                               ; preds = %92
  store %"class.std::vector"* %16, %"class.std::vector"** %29, align 8
  %97 = load %"class.std::vector"*, %"class.std::vector"** %29, align 8
  %98 = call i32* @_ZNSt6vectorIiSaIiEE5beginEv(%"class.std::vector"* %97) #3
  %99 = getelementptr inbounds %"class.__gnu_cxx::__normal_iterator", %"class.__gnu_cxx::__normal_iterator"* %30, i32 0, i32 0
  store i32* %98, i32** %99, align 8
  %100 = load %"class.std::vector"*, %"class.std::vector"** %29, align 8
  %101 = call i32* @_ZNSt6vectorIiSaIiEE3endEv(%"class.std::vector"* %100) #3
  %102 = getelementptr inbounds %"class.__gnu_cxx::__normal_iterator", %"class.__gnu_cxx::__normal_iterator"* %31, i32 0, i32 0
  store i32* %101, i32** %102, align 8
  br label %103

103:                                              ; preds = %112, %96
  %104 = call zeroext i1 @_ZN9__gnu_cxxneIPiSt6vectorIiSaIiEEEEbRKNS_17__normal_iteratorIT_T0_EESA_(%"class.__gnu_cxx::__normal_iterator"* dereferenceable(8) %30, %"class.__gnu_cxx::__normal_iterator"* dereferenceable(8) %31) #3
  br i1 %104, label %105, label %114

105:                                              ; preds = %103
  %106 = call dereferenceable(4) i32* @_ZNK9__gnu_cxx17__normal_iteratorIPiSt6vectorIiSaIiEEEdeEv(%"class.__gnu_cxx::__normal_iterator"* %30) #3
  %107 = load i32, i32* %106, align 4
  %108 = trunc i32 %107 to i8
  store i8 %108, i8* %32, align 1
  %109 = load i8, i8* %32, align 1
  %110 = invoke dereferenceable(272) %"class.std::basic_ostream"* @_ZStlsISt11char_traitsIcEERSt13basic_ostreamIcT_ES5_c(%"class.std::basic_ostream"* dereferenceable(272) @_ZSt4cout, i8 signext %109)
          to label %111 unwind label %68

111:                                              ; preds = %105
  br label %112

112:                                              ; preds = %111
  %113 = call dereferenceable(8) %"class.__gnu_cxx::__normal_iterator"* @_ZN9__gnu_cxx17__normal_iteratorIPiSt6vectorIiSaIiEEEppEv(%"class.__gnu_cxx::__normal_iterator"* %30) #3
  br label %103

114:                                              ; preds = %103
  br label %120

115:                                              ; preds = %92
  %116 = invoke dereferenceable(272) %"class.std::basic_ostream"* @_ZStlsISt11char_traitsIcEERSt13basic_ostreamIcT_ES5_PKc(%"class.std::basic_ostream"* dereferenceable(272) @_ZSt4cout, i8* getelementptr inbounds ([16 x i8], [16 x i8]* @.str, i64 0, i64 0))
          to label %117 unwind label %68

117:                                              ; preds = %115
  %118 = invoke dereferenceable(272) %"class.std::basic_ostream"* @_ZNSolsEPFRSoS_E(%"class.std::basic_ostream"* %116, %"class.std::basic_ostream"* (%"class.std::basic_ostream"*)* @_ZSt4endlIcSt11char_traitsIcEERSt13basic_ostreamIT_T0_ES6_)
          to label %119 unwind label %68

119:                                              ; preds = %117
  br label %120

120:                                              ; preds = %119, %114
  call void @_ZNSt6vectorIiSaIiEED2Ev(%"class.std::vector"* %16) #3
  call void @_ZNSt6vectorIiSaIiEED2Ev(%"class.std::vector"* %15) #3
  call void @_ZNSt6vectorIiSaIiEED2Ev(%"class.std::vector"* %8) #3
  %121 = load i32, i32* %3, align 4
  ret i32 %121

122:                                              ; preds = %68, %64
  call void @_ZNSt6vectorIiSaIiEED2Ev(%"class.std::vector"* %15) #3
  call void @_ZNSt6vectorIiSaIiEED2Ev(%"class.std::vector"* %8) #3
  br label %123

123:                                              ; preds = %122, %60
  %124 = load i8*, i8** %12, align 8
  %125 = load i32, i32* %13, align 4
  %126 = insertvalue { i8*, i32 } undef, i8* %124, 0
  %127 = insertvalue { i8*, i32 } %126, i32 %125, 1
  resume { i8*, i32 } %127
}

; Function Attrs: argmemonly nounwind willreturn
declare void @llvm.memcpy.p0i8.p0i8.i64(i8* noalias nocapture writeonly, i8* noalias nocapture readonly, i64, i1 immarg) #5

; Function Attrs: noinline nounwind optnone uwtable
define linkonce_odr dso_local void @_ZNSaIiEC2Ev(%"class.std::allocator"* %0) unnamed_addr #6 comdat align 2 {
  %2 = alloca %"class.std::allocator"*, align 8
  store %"class.std::allocator"* %0, %"class.std::allocator"** %2, align 8
  %3 = load %"class.std::allocator"*, %"class.std::allocator"** %2, align 8
  %4 = bitcast %"class.std::allocator"* %3 to %"class.__gnu_cxx::new_allocator"*
  call void @_ZN9__gnu_cxx13new_allocatorIiEC2Ev(%"class.__gnu_cxx::new_allocator"* %4) #3
  ret void
}

; Function Attrs: noinline optnone uwtable
define linkonce_odr dso_local void @_ZNSt6vectorIiSaIiEEC2ESt16initializer_listIiERKS0_(%"class.std::vector"* %0, i32* %1, i64 %2, %"class.std::allocator"* dereferenceable(1) %3) unnamed_addr #7 comdat align 2 personality i8* bitcast (i32 (...)* @__gxx_personality_v0 to i8*) {
  %5 = alloca %"class.std::initializer_list", align 8
  %6 = alloca %"class.std::vector"*, align 8
  %7 = alloca %"class.std::allocator"*, align 8
  %8 = alloca %"struct.std::forward_iterator_tag", align 1
  %9 = alloca %"struct.std::random_access_iterator_tag", align 1
  %10 = alloca i8*
  %11 = alloca i32
  %12 = bitcast %"class.std::initializer_list"* %5 to { i32*, i64 }*
  %13 = getelementptr inbounds { i32*, i64 }, { i32*, i64 }* %12, i32 0, i32 0
  store i32* %1, i32** %13, align 8
  %14 = getelementptr inbounds { i32*, i64 }, { i32*, i64 }* %12, i32 0, i32 1
  store i64 %2, i64* %14, align 8
  store %"class.std::vector"* %0, %"class.std::vector"** %6, align 8
  store %"class.std::allocator"* %3, %"class.std::allocator"** %7, align 8
  %15 = load %"class.std::vector"*, %"class.std::vector"** %6, align 8
  %16 = bitcast %"class.std::vector"* %15 to %"struct.std::_Vector_base"*
  %17 = load %"class.std::allocator"*, %"class.std::allocator"** %7, align 8
  call void @_ZNSt12_Vector_baseIiSaIiEEC2ERKS0_(%"struct.std::_Vector_base"* %16, %"class.std::allocator"* dereferenceable(1) %17) #3
  %18 = call i32* @_ZNKSt16initializer_listIiE5beginEv(%"class.std::initializer_list"* %5) #3
  %19 = call i32* @_ZNKSt16initializer_listIiE3endEv(%"class.std::initializer_list"* %5) #3
  %20 = bitcast %"struct.std::random_access_iterator_tag"* %9 to %"struct.std::forward_iterator_tag"*
  invoke void @_ZNSt6vectorIiSaIiEE19_M_range_initializeIPKiEEvT_S5_St20forward_iterator_tag(%"class.std::vector"* %15, i32* %18, i32* %19)
          to label %21 unwind label %22

21:                                               ; preds = %4
  ret void

22:                                               ; preds = %4
  %23 = landingpad { i8*, i32 }
          cleanup
  %24 = extractvalue { i8*, i32 } %23, 0
  store i8* %24, i8** %10, align 8
  %25 = extractvalue { i8*, i32 } %23, 1
  store i32 %25, i32* %11, align 4
  %26 = bitcast %"class.std::vector"* %15 to %"struct.std::_Vector_base"*
  call void @_ZNSt12_Vector_baseIiSaIiEED2Ev(%"struct.std::_Vector_base"* %26) #3
  br label %27

27:                                               ; preds = %22
  %28 = load i8*, i8** %10, align 8
  %29 = load i32, i32* %11, align 4
  %30 = insertvalue { i8*, i32 } undef, i8* %28, 0
  %31 = insertvalue { i8*, i32 } %30, i32 %29, 1
  resume { i8*, i32 } %31
}

declare dso_local i32 @__gxx_personality_v0(...)

; Function Attrs: noinline nounwind optnone uwtable
define linkonce_odr dso_local void @_ZNSaIiED2Ev(%"class.std::allocator"* %0) unnamed_addr #6 comdat align 2 {
  %2 = alloca %"class.std::allocator"*, align 8
  store %"class.std::allocator"* %0, %"class.std::allocator"** %2, align 8
  %3 = load %"class.std::allocator"*, %"class.std::allocator"** %2, align 8
  %4 = bitcast %"class.std::allocator"* %3 to %"class.__gnu_cxx::new_allocator"*
  call void @_ZN9__gnu_cxx13new_allocatorIiED2Ev(%"class.__gnu_cxx::new_allocator"* %4) #3
  ret void
}

; Function Attrs: noinline nounwind optnone uwtable
define linkonce_odr dso_local void @_ZNSt6vectorIiSaIiEEC2Ev(%"class.std::vector"* %0) unnamed_addr #6 comdat align 2 {
  %2 = alloca %"class.std::vector"*, align 8
  store %"class.std::vector"* %0, %"class.std::vector"** %2, align 8
  %3 = load %"class.std::vector"*, %"class.std::vector"** %2, align 8
  %4 = bitcast %"class.std::vector"* %3 to %"struct.std::_Vector_base"*
  call void @_ZNSt12_Vector_baseIiSaIiEEC2Ev(%"struct.std::_Vector_base"* %4) #3
  ret void
}

; Function Attrs: noinline optnone uwtable
define linkonce_odr dso_local void @_ZNSt6vectorIiSaIiEEC2EmRKS0_(%"class.std::vector"* %0, i64 %1, %"class.std::allocator"* dereferenceable(1) %2) unnamed_addr #7 comdat align 2 personality i8* bitcast (i32 (...)* @__gxx_personality_v0 to i8*) {
  %4 = alloca %"class.std::vector"*, align 8
  %5 = alloca i64, align 8
  %6 = alloca %"class.std::allocator"*, align 8
  %7 = alloca i8*
  %8 = alloca i32
  store %"class.std::vector"* %0, %"class.std::vector"** %4, align 8
  store i64 %1, i64* %5, align 8
  store %"class.std::allocator"* %2, %"class.std::allocator"** %6, align 8
  %9 = load %"class.std::vector"*, %"class.std::vector"** %4, align 8
  %10 = bitcast %"class.std::vector"* %9 to %"struct.std::_Vector_base"*
  %11 = load i64, i64* %5, align 8
  %12 = load %"class.std::allocator"*, %"class.std::allocator"** %6, align 8
  %13 = call i64 @_ZNSt6vectorIiSaIiEE17_S_check_init_lenEmRKS0_(i64 %11, %"class.std::allocator"* dereferenceable(1) %12)
  %14 = load %"class.std::allocator"*, %"class.std::allocator"** %6, align 8
  call void @_ZNSt12_Vector_baseIiSaIiEEC2EmRKS0_(%"struct.std::_Vector_base"* %10, i64 %13, %"class.std::allocator"* dereferenceable(1) %14)
  %15 = load i64, i64* %5, align 8
  invoke void @_ZNSt6vectorIiSaIiEE21_M_default_initializeEm(%"class.std::vector"* %9, i64 %15)
          to label %16 unwind label %17

16:                                               ; preds = %3
  ret void

17:                                               ; preds = %3
  %18 = landingpad { i8*, i32 }
          cleanup
  %19 = extractvalue { i8*, i32 } %18, 0
  store i8* %19, i8** %7, align 8
  %20 = extractvalue { i8*, i32 } %18, 1
  store i32 %20, i32* %8, align 4
  %21 = bitcast %"class.std::vector"* %9 to %"struct.std::_Vector_base"*
  call void @_ZNSt12_Vector_baseIiSaIiEED2Ev(%"struct.std::_Vector_base"* %21) #3
  br label %22

22:                                               ; preds = %17
  %23 = load i8*, i8** %7, align 8
  %24 = load i32, i32* %8, align 4
  %25 = insertvalue { i8*, i32 } undef, i8* %23, 0
  %26 = insertvalue { i8*, i32 } %25, i32 %24, 1
  resume { i8*, i32 } %26
}

; Function Attrs: noinline optnone uwtable
define linkonce_odr dso_local void @_ZNSt6vectorIiSaIiEE9push_backERKi(%"class.std::vector"* %0, i32* dereferenceable(4) %1) #7 comdat align 2 {
  %3 = alloca %"class.std::vector"*, align 8
  %4 = alloca i32*, align 8
  %5 = alloca %"class.__gnu_cxx::__normal_iterator", align 8
  store %"class.std::vector"* %0, %"class.std::vector"** %3, align 8
  store i32* %1, i32** %4, align 8
  %6 = load %"class.std::vector"*, %"class.std::vector"** %3, align 8
  %7 = bitcast %"class.std::vector"* %6 to %"struct.std::_Vector_base"*
  %8 = getelementptr inbounds %"struct.std::_Vector_base", %"struct.std::_Vector_base"* %7, i32 0, i32 0
  %9 = bitcast %"struct.std::_Vector_base<int, std::allocator<int> >::_Vector_impl"* %8 to %"struct.std::_Vector_base<int, std::allocator<int> >::_Vector_impl_data"*
  %10 = getelementptr inbounds %"struct.std::_Vector_base<int, std::allocator<int> >::_Vector_impl_data", %"struct.std::_Vector_base<int, std::allocator<int> >::_Vector_impl_data"* %9, i32 0, i32 1
  %11 = load i32*, i32** %10, align 8
  %12 = bitcast %"class.std::vector"* %6 to %"struct.std::_Vector_base"*
  %13 = getelementptr inbounds %"struct.std::_Vector_base", %"struct.std::_Vector_base"* %12, i32 0, i32 0
  %14 = bitcast %"struct.std::_Vector_base<int, std::allocator<int> >::_Vector_impl"* %13 to %"struct.std::_Vector_base<int, std::allocator<int> >::_Vector_impl_data"*
  %15 = getelementptr inbounds %"struct.std::_Vector_base<int, std::allocator<int> >::_Vector_impl_data", %"struct.std::_Vector_base<int, std::allocator<int> >::_Vector_impl_data"* %14, i32 0, i32 2
  %16 = load i32*, i32** %15, align 8
  %17 = icmp ne i32* %11, %16
  br i1 %17, label %18, label %34

18:                                               ; preds = %2
  %19 = bitcast %"class.std::vector"* %6 to %"struct.std::_Vector_base"*
  %20 = getelementptr inbounds %"struct.std::_Vector_base", %"struct.std::_Vector_base"* %19, i32 0, i32 0
  %21 = bitcast %"struct.std::_Vector_base<int, std::allocator<int> >::_Vector_impl"* %20 to %"class.std::allocator"*
  %22 = bitcast %"class.std::vector"* %6 to %"struct.std::_Vector_base"*
  %23 = getelementptr inbounds %"struct.std::_Vector_base", %"struct.std::_Vector_base"* %22, i32 0, i32 0
  %24 = bitcast %"struct.std::_Vector_base<int, std::allocator<int> >::_Vector_impl"* %23 to %"struct.std::_Vector_base<int, std::allocator<int> >::_Vector_impl_data"*
  %25 = getelementptr inbounds %"struct.std::_Vector_base<int, std::allocator<int> >::_Vector_impl_data", %"struct.std::_Vector_base<int, std::allocator<int> >::_Vector_impl_data"* %24, i32 0, i32 1
  %26 = load i32*, i32** %25, align 8
  %27 = load i32*, i32** %4, align 8
  call void @_ZNSt16allocator_traitsISaIiEE9constructIiJRKiEEEvRS0_PT_DpOT0_(%"class.std::allocator"* dereferenceable(1) %21, i32* %26, i32* dereferenceable(4) %27) #3
  %28 = bitcast %"class.std::vector"* %6 to %"struct.std::_Vector_base"*
  %29 = getelementptr inbounds %"struct.std::_Vector_base", %"struct.std::_Vector_base"* %28, i32 0, i32 0
  %30 = bitcast %"struct.std::_Vector_base<int, std::allocator<int> >::_Vector_impl"* %29 to %"struct.std::_Vector_base<int, std::allocator<int> >::_Vector_impl_data"*
  %31 = getelementptr inbounds %"struct.std::_Vector_base<int, std::allocator<int> >::_Vector_impl_data", %"struct.std::_Vector_base<int, std::allocator<int> >::_Vector_impl_data"* %30, i32 0, i32 1
  %32 = load i32*, i32** %31, align 8
  %33 = getelementptr inbounds i32, i32* %32, i32 1
  store i32* %33, i32** %31, align 8
  br label %40

34:                                               ; preds = %2
  %35 = call i32* @_ZNSt6vectorIiSaIiEE3endEv(%"class.std::vector"* %6) #3
  %36 = getelementptr inbounds %"class.__gnu_cxx::__normal_iterator", %"class.__gnu_cxx::__normal_iterator"* %5, i32 0, i32 0
  store i32* %35, i32** %36, align 8
  %37 = load i32*, i32** %4, align 8
  %38 = getelementptr inbounds %"class.__gnu_cxx::__normal_iterator", %"class.__gnu_cxx::__normal_iterator"* %5, i32 0, i32 0
  %39 = load i32*, i32** %38, align 8
  call void @_ZNSt6vectorIiSaIiEE17_M_realloc_insertIJRKiEEEvN9__gnu_cxx17__normal_iteratorIPiS1_EEDpOT_(%"class.std::vector"* %6, i32* %39, i32* dereferenceable(4) %37)
  br label %40

40:                                               ; preds = %34, %18
  ret void
}

; Function Attrs: noinline optnone uwtable
define internal void @"_ZSt8for_eachIN9__gnu_cxx17__normal_iteratorIPiSt6vectorIiSaIiEEEEZ4mainE3$_0ET0_T_S9_S8_"(i32* %0, i32* %1) #7 {
  %3 = alloca %"class.__gnu_cxx::__normal_iterator", align 8
  %4 = alloca %"class.__gnu_cxx::__normal_iterator", align 8
  %5 = alloca %class.anon, align 1
  %6 = getelementptr inbounds %"class.__gnu_cxx::__normal_iterator", %"class.__gnu_cxx::__normal_iterator"* %3, i32 0, i32 0
  store i32* %0, i32** %6, align 8
  %7 = getelementptr inbounds %"class.__gnu_cxx::__normal_iterator", %"class.__gnu_cxx::__normal_iterator"* %4, i32 0, i32 0
  store i32* %1, i32** %7, align 8
  br label %8

8:                                                ; preds = %12, %2
  %9 = call zeroext i1 @_ZN9__gnu_cxxneIPiSt6vectorIiSaIiEEEEbRKNS_17__normal_iteratorIT_T0_EESA_(%"class.__gnu_cxx::__normal_iterator"* dereferenceable(8) %3, %"class.__gnu_cxx::__normal_iterator"* dereferenceable(8) %4) #3
  br i1 %9, label %10, label %14

10:                                               ; preds = %8
  %11 = call dereferenceable(4) i32* @_ZNK9__gnu_cxx17__normal_iteratorIPiSt6vectorIiSaIiEEEdeEv(%"class.__gnu_cxx::__normal_iterator"* %3) #3
  call void @"_ZZ4mainENK3$_0clERi"(%class.anon* %5, i32* dereferenceable(4) %11)
  br label %12

12:                                               ; preds = %10
  %13 = call dereferenceable(8) %"class.__gnu_cxx::__normal_iterator"* @_ZN9__gnu_cxx17__normal_iteratorIPiSt6vectorIiSaIiEEEppEv(%"class.__gnu_cxx::__normal_iterator"* %3) #3
  br label %8

14:                                               ; preds = %8
  ret void
}

; Function Attrs: noinline nounwind optnone uwtable
define linkonce_odr dso_local i32* @_ZNSt6vectorIiSaIiEE5beginEv(%"class.std::vector"* %0) #6 comdat align 2 {
  %2 = alloca %"class.__gnu_cxx::__normal_iterator", align 8
  %3 = alloca %"class.std::vector"*, align 8
  store %"class.std::vector"* %0, %"class.std::vector"** %3, align 8
  %4 = load %"class.std::vector"*, %"class.std::vector"** %3, align 8
  %5 = bitcast %"class.std::vector"* %4 to %"struct.std::_Vector_base"*
  %6 = getelementptr inbounds %"struct.std::_Vector_base", %"struct.std::_Vector_base"* %5, i32 0, i32 0
  %7 = bitcast %"struct.std::_Vector_base<int, std::allocator<int> >::_Vector_impl"* %6 to %"struct.std::_Vector_base<int, std::allocator<int> >::_Vector_impl_data"*
  %8 = getelementptr inbounds %"struct.std::_Vector_base<int, std::allocator<int> >::_Vector_impl_data", %"struct.std::_Vector_base<int, std::allocator<int> >::_Vector_impl_data"* %7, i32 0, i32 0
  call void @_ZN9__gnu_cxx17__normal_iteratorIPiSt6vectorIiSaIiEEEC2ERKS1_(%"class.__gnu_cxx::__normal_iterator"* %2, i32** dereferenceable(8) %8) #3
  %9 = getelementptr inbounds %"class.__gnu_cxx::__normal_iterator", %"class.__gnu_cxx::__normal_iterator"* %2, i32 0, i32 0
  %10 = load i32*, i32** %9, align 8
  ret i32* %10
}

; Function Attrs: noinline nounwind optnone uwtable
define linkonce_odr dso_local i32* @_ZNSt6vectorIiSaIiEE3endEv(%"class.std::vector"* %0) #6 comdat align 2 {
  %2 = alloca %"class.__gnu_cxx::__normal_iterator", align 8
  %3 = alloca %"class.std::vector"*, align 8
  store %"class.std::vector"* %0, %"class.std::vector"** %3, align 8
  %4 = load %"class.std::vector"*, %"class.std::vector"** %3, align 8
  %5 = bitcast %"class.std::vector"* %4 to %"struct.std::_Vector_base"*
  %6 = getelementptr inbounds %"struct.std::_Vector_base", %"struct.std::_Vector_base"* %5, i32 0, i32 0
  %7 = bitcast %"struct.std::_Vector_base<int, std::allocator<int> >::_Vector_impl"* %6 to %"struct.std::_Vector_base<int, std::allocator<int> >::_Vector_impl_data"*
  %8 = getelementptr inbounds %"struct.std::_Vector_base<int, std::allocator<int> >::_Vector_impl_data", %"struct.std::_Vector_base<int, std::allocator<int> >::_Vector_impl_data"* %7, i32 0, i32 1
  call void @_ZN9__gnu_cxx17__normal_iteratorIPiSt6vectorIiSaIiEEEC2ERKS1_(%"class.__gnu_cxx::__normal_iterator"* %2, i32** dereferenceable(8) %8) #3
  %9 = getelementptr inbounds %"class.__gnu_cxx::__normal_iterator", %"class.__gnu_cxx::__normal_iterator"* %2, i32 0, i32 0
  %10 = load i32*, i32** %9, align 8
  ret i32* %10
}

; Function Attrs: noinline optnone uwtable
define internal %"class.std::vector"* @"_ZSt9transformISt16reverse_iteratorIN9__gnu_cxx17__normal_iteratorIPiSt6vectorIiSaIiEEEEES7_St20back_insert_iteratorIS6_EZ4mainE3$_1ET1_T_SD_T0_SC_T2_"(%"class.std::reverse_iterator"* %0, %"class.std::reverse_iterator"* %1, i32* %2, %"class.std::vector"* %3) #7 {
  %5 = alloca %"class.std::back_insert_iterator", align 8
  %6 = alloca %"class.__gnu_cxx::__normal_iterator", align 8
  %7 = alloca %"class.std::back_insert_iterator", align 8
  %8 = alloca %class.anon.1, align 1
  %9 = alloca i32, align 4
  %10 = getelementptr inbounds %"class.__gnu_cxx::__normal_iterator", %"class.__gnu_cxx::__normal_iterator"* %6, i32 0, i32 0
  store i32* %2, i32** %10, align 8
  %11 = getelementptr inbounds %"class.std::back_insert_iterator", %"class.std::back_insert_iterator"* %7, i32 0, i32 0
  store %"class.std::vector"* %3, %"class.std::vector"** %11, align 8
  br label %12

12:                                               ; preds = %20, %4
  %13 = call zeroext i1 @_ZStneIN9__gnu_cxx17__normal_iteratorIPiSt6vectorIiSaIiEEEEEbRKSt16reverse_iteratorIT_ESB_(%"class.std::reverse_iterator"* dereferenceable(8) %0, %"class.std::reverse_iterator"* dereferenceable(8) %1)
  br i1 %13, label %14, label %24

14:                                               ; preds = %12
  %15 = call dereferenceable(4) i32* @_ZNKSt16reverse_iteratorIN9__gnu_cxx17__normal_iteratorIPiSt6vectorIiSaIiEEEEEdeEv(%"class.std::reverse_iterator"* %0)
  %16 = call dereferenceable(4) i32* @_ZNK9__gnu_cxx17__normal_iteratorIPiSt6vectorIiSaIiEEEdeEv(%"class.__gnu_cxx::__normal_iterator"* %6) #3
  %17 = call i32 @"_ZZ4mainENK3$_1clERiS0_"(%class.anon.1* %8, i32* dereferenceable(4) %15, i32* dereferenceable(4) %16)
  store i32 %17, i32* %9, align 4
  %18 = call dereferenceable(8) %"class.std::back_insert_iterator"* @_ZNSt20back_insert_iteratorISt6vectorIiSaIiEEEdeEv(%"class.std::back_insert_iterator"* %7)
  %19 = call dereferenceable(8) %"class.std::back_insert_iterator"* @_ZNSt20back_insert_iteratorISt6vectorIiSaIiEEEaSEOi(%"class.std::back_insert_iterator"* %18, i32* dereferenceable(4) %9)
  br label %20

20:                                               ; preds = %14
  %21 = call dereferenceable(8) %"class.std::reverse_iterator"* @_ZNSt16reverse_iteratorIN9__gnu_cxx17__normal_iteratorIPiSt6vectorIiSaIiEEEEEppEv(%"class.std::reverse_iterator"* %0)
  %22 = call dereferenceable(8) %"class.__gnu_cxx::__normal_iterator"* @_ZN9__gnu_cxx17__normal_iteratorIPiSt6vectorIiSaIiEEEppEv(%"class.__gnu_cxx::__normal_iterator"* %6) #3
  %23 = call dereferenceable(8) %"class.std::back_insert_iterator"* @_ZNSt20back_insert_iteratorISt6vectorIiSaIiEEEppEv(%"class.std::back_insert_iterator"* %7)
  br label %12

24:                                               ; preds = %12
  %25 = bitcast %"class.std::back_insert_iterator"* %5 to i8*
  %26 = bitcast %"class.std::back_insert_iterator"* %7 to i8*
  call void @llvm.memcpy.p0i8.p0i8.i64(i8* align 8 %25, i8* align 8 %26, i64 8, i1 false)
  %27 = getelementptr inbounds %"class.std::back_insert_iterator", %"class.std::back_insert_iterator"* %5, i32 0, i32 0
  %28 = load %"class.std::vector"*, %"class.std::vector"** %27, align 8
  ret %"class.std::vector"* %28
}

; Function Attrs: noinline nounwind optnone uwtable
define linkonce_odr dso_local void @_ZNSt6vectorIiSaIiEE6rbeginEv(%"class.std::reverse_iterator"* noalias sret %0, %"class.std::vector"* %1) #6 comdat align 2 personality i8* bitcast (i32 (...)* @__gxx_personality_v0 to i8*) {
  %3 = alloca i8*, align 8
  %4 = alloca %"class.std::vector"*, align 8
  %5 = alloca %"class.__gnu_cxx::__normal_iterator", align 8
  %6 = bitcast %"class.std::reverse_iterator"* %0 to i8*
  store i8* %6, i8** %3, align 8
  store %"class.std::vector"* %1, %"class.std::vector"** %4, align 8
  %7 = load %"class.std::vector"*, %"class.std::vector"** %4, align 8
  %8 = call i32* @_ZNSt6vectorIiSaIiEE3endEv(%"class.std::vector"* %7) #3
  %9 = getelementptr inbounds %"class.__gnu_cxx::__normal_iterator", %"class.__gnu_cxx::__normal_iterator"* %5, i32 0, i32 0
  store i32* %8, i32** %9, align 8
  %10 = getelementptr inbounds %"class.__gnu_cxx::__normal_iterator", %"class.__gnu_cxx::__normal_iterator"* %5, i32 0, i32 0
  %11 = load i32*, i32** %10, align 8
  invoke void @_ZNSt16reverse_iteratorIN9__gnu_cxx17__normal_iteratorIPiSt6vectorIiSaIiEEEEEC2ES6_(%"class.std::reverse_iterator"* %0, i32* %11)
          to label %12 unwind label %13

12:                                               ; preds = %2
  ret void

13:                                               ; preds = %2
  %14 = landingpad { i8*, i32 }
          catch i8* null
  %15 = extractvalue { i8*, i32 } %14, 0
  call void @__clang_call_terminate(i8* %15) #12
  unreachable
}

; Function Attrs: noinline nounwind optnone uwtable
define linkonce_odr dso_local void @_ZNSt6vectorIiSaIiEE4rendEv(%"class.std::reverse_iterator"* noalias sret %0, %"class.std::vector"* %1) #6 comdat align 2 personality i8* bitcast (i32 (...)* @__gxx_personality_v0 to i8*) {
  %3 = alloca i8*, align 8
  %4 = alloca %"class.std::vector"*, align 8
  %5 = alloca %"class.__gnu_cxx::__normal_iterator", align 8
  %6 = bitcast %"class.std::reverse_iterator"* %0 to i8*
  store i8* %6, i8** %3, align 8
  store %"class.std::vector"* %1, %"class.std::vector"** %4, align 8
  %7 = load %"class.std::vector"*, %"class.std::vector"** %4, align 8
  %8 = call i32* @_ZNSt6vectorIiSaIiEE5beginEv(%"class.std::vector"* %7) #3
  %9 = getelementptr inbounds %"class.__gnu_cxx::__normal_iterator", %"class.__gnu_cxx::__normal_iterator"* %5, i32 0, i32 0
  store i32* %8, i32** %9, align 8
  %10 = getelementptr inbounds %"class.__gnu_cxx::__normal_iterator", %"class.__gnu_cxx::__normal_iterator"* %5, i32 0, i32 0
  %11 = load i32*, i32** %10, align 8
  invoke void @_ZNSt16reverse_iteratorIN9__gnu_cxx17__normal_iteratorIPiSt6vectorIiSaIiEEEEEC2ES6_(%"class.std::reverse_iterator"* %0, i32* %11)
          to label %12 unwind label %13

12:                                               ; preds = %2
  ret void

13:                                               ; preds = %2
  %14 = landingpad { i8*, i32 }
          catch i8* null
  %15 = extractvalue { i8*, i32 } %14, 0
  call void @__clang_call_terminate(i8* %15) #12
  unreachable
}

; Function Attrs: noinline optnone uwtable
define linkonce_odr dso_local %"class.std::vector"* @_ZSt13back_inserterISt6vectorIiSaIiEEESt20back_insert_iteratorIT_ERS4_(%"class.std::vector"* dereferenceable(24) %0) #7 comdat {
  %2 = alloca %"class.std::back_insert_iterator", align 8
  %3 = alloca %"class.std::vector"*, align 8
  store %"class.std::vector"* %0, %"class.std::vector"** %3, align 8
  %4 = load %"class.std::vector"*, %"class.std::vector"** %3, align 8
  call void @_ZNSt20back_insert_iteratorISt6vectorIiSaIiEEEC2ERS2_(%"class.std::back_insert_iterator"* %2, %"class.std::vector"* dereferenceable(24) %4)
  %5 = getelementptr inbounds %"class.std::back_insert_iterator", %"class.std::back_insert_iterator"* %2, i32 0, i32 0
  %6 = load %"class.std::vector"*, %"class.std::vector"** %5, align 8
  ret %"class.std::vector"* %6
}

; Function Attrs: noinline nounwind optnone uwtable
define linkonce_odr dso_local zeroext i1 @_ZN9__gnu_cxxneIPiSt6vectorIiSaIiEEEEbRKNS_17__normal_iteratorIT_T0_EESA_(%"class.__gnu_cxx::__normal_iterator"* dereferenceable(8) %0, %"class.__gnu_cxx::__normal_iterator"* dereferenceable(8) %1) #6 comdat {
  %3 = alloca %"class.__gnu_cxx::__normal_iterator"*, align 8
  %4 = alloca %"class.__gnu_cxx::__normal_iterator"*, align 8
  store %"class.__gnu_cxx::__normal_iterator"* %0, %"class.__gnu_cxx::__normal_iterator"** %3, align 8
  store %"class.__gnu_cxx::__normal_iterator"* %1, %"class.__gnu_cxx::__normal_iterator"** %4, align 8
  %5 = load %"class.__gnu_cxx::__normal_iterator"*, %"class.__gnu_cxx::__normal_iterator"** %3, align 8
  %6 = call dereferenceable(8) i32** @_ZNK9__gnu_cxx17__normal_iteratorIPiSt6vectorIiSaIiEEE4baseEv(%"class.__gnu_cxx::__normal_iterator"* %5) #3
  %7 = load i32*, i32** %6, align 8
  %8 = load %"class.__gnu_cxx::__normal_iterator"*, %"class.__gnu_cxx::__normal_iterator"** %4, align 8
  %9 = call dereferenceable(8) i32** @_ZNK9__gnu_cxx17__normal_iteratorIPiSt6vectorIiSaIiEEE4baseEv(%"class.__gnu_cxx::__normal_iterator"* %8) #3
  %10 = load i32*, i32** %9, align 8
  %11 = icmp ne i32* %7, %10
  ret i1 %11
}

; Function Attrs: noinline nounwind optnone uwtable
define linkonce_odr dso_local dereferenceable(4) i32* @_ZNK9__gnu_cxx17__normal_iteratorIPiSt6vectorIiSaIiEEEdeEv(%"class.__gnu_cxx::__normal_iterator"* %0) #6 comdat align 2 {
  %2 = alloca %"class.__gnu_cxx::__normal_iterator"*, align 8
  store %"class.__gnu_cxx::__normal_iterator"* %0, %"class.__gnu_cxx::__normal_iterator"** %2, align 8
  %3 = load %"class.__gnu_cxx::__normal_iterator"*, %"class.__gnu_cxx::__normal_iterator"** %2, align 8
  %4 = getelementptr inbounds %"class.__gnu_cxx::__normal_iterator", %"class.__gnu_cxx::__normal_iterator"* %3, i32 0, i32 0
  %5 = load i32*, i32** %4, align 8
  ret i32* %5
}

declare dso_local dereferenceable(272) %"class.std::basic_ostream"* @_ZStlsISt11char_traitsIcEERSt13basic_ostreamIcT_ES5_c(%"class.std::basic_ostream"* dereferenceable(272), i8 signext) #1

; Function Attrs: noinline nounwind optnone uwtable
define linkonce_odr dso_local dereferenceable(8) %"class.__gnu_cxx::__normal_iterator"* @_ZN9__gnu_cxx17__normal_iteratorIPiSt6vectorIiSaIiEEEppEv(%"class.__gnu_cxx::__normal_iterator"* %0) #6 comdat align 2 {
  %2 = alloca %"class.__gnu_cxx::__normal_iterator"*, align 8
  store %"class.__gnu_cxx::__normal_iterator"* %0, %"class.__gnu_cxx::__normal_iterator"** %2, align 8
  %3 = load %"class.__gnu_cxx::__normal_iterator"*, %"class.__gnu_cxx::__normal_iterator"** %2, align 8
  %4 = getelementptr inbounds %"class.__gnu_cxx::__normal_iterator", %"class.__gnu_cxx::__normal_iterator"* %3, i32 0, i32 0
  %5 = load i32*, i32** %4, align 8
  %6 = getelementptr inbounds i32, i32* %5, i32 1
  store i32* %6, i32** %4, align 8
  ret %"class.__gnu_cxx::__normal_iterator"* %3
}

declare dso_local dereferenceable(272) %"class.std::basic_ostream"* @_ZStlsISt11char_traitsIcEERSt13basic_ostreamIcT_ES5_PKc(%"class.std::basic_ostream"* dereferenceable(272), i8*) #1

declare dso_local dereferenceable(272) %"class.std::basic_ostream"* @_ZNSolsEPFRSoS_E(%"class.std::basic_ostream"*, %"class.std::basic_ostream"* (%"class.std::basic_ostream"*)*) #1

declare dso_local dereferenceable(272) %"class.std::basic_ostream"* @_ZSt4endlIcSt11char_traitsIcEERSt13basic_ostreamIT_T0_ES6_(%"class.std::basic_ostream"* dereferenceable(272)) #1

; Function Attrs: noinline nounwind optnone uwtable
define linkonce_odr dso_local void @_ZNSt6vectorIiSaIiEED2Ev(%"class.std::vector"* %0) unnamed_addr #6 comdat align 2 personality i8* bitcast (i32 (...)* @__gxx_personality_v0 to i8*) {
  %2 = alloca %"class.std::vector"*, align 8
  %3 = alloca i8*
  %4 = alloca i32
  store %"class.std::vector"* %0, %"class.std::vector"** %2, align 8
  %5 = load %"class.std::vector"*, %"class.std::vector"** %2, align 8
  %6 = bitcast %"class.std::vector"* %5 to %"struct.std::_Vector_base"*
  %7 = getelementptr inbounds %"struct.std::_Vector_base", %"struct.std::_Vector_base"* %6, i32 0, i32 0
  %8 = bitcast %"struct.std::_Vector_base<int, std::allocator<int> >::_Vector_impl"* %7 to %"struct.std::_Vector_base<int, std::allocator<int> >::_Vector_impl_data"*
  %9 = getelementptr inbounds %"struct.std::_Vector_base<int, std::allocator<int> >::_Vector_impl_data", %"struct.std::_Vector_base<int, std::allocator<int> >::_Vector_impl_data"* %8, i32 0, i32 0
  %10 = load i32*, i32** %9, align 8
  %11 = bitcast %"class.std::vector"* %5 to %"struct.std::_Vector_base"*
  %12 = getelementptr inbounds %"struct.std::_Vector_base", %"struct.std::_Vector_base"* %11, i32 0, i32 0
  %13 = bitcast %"struct.std::_Vector_base<int, std::allocator<int> >::_Vector_impl"* %12 to %"struct.std::_Vector_base<int, std::allocator<int> >::_Vector_impl_data"*
  %14 = getelementptr inbounds %"struct.std::_Vector_base<int, std::allocator<int> >::_Vector_impl_data", %"struct.std::_Vector_base<int, std::allocator<int> >::_Vector_impl_data"* %13, i32 0, i32 1
  %15 = load i32*, i32** %14, align 8
  %16 = bitcast %"class.std::vector"* %5 to %"struct.std::_Vector_base"*
  %17 = call dereferenceable(1) %"class.std::allocator"* @_ZNSt12_Vector_baseIiSaIiEE19_M_get_Tp_allocatorEv(%"struct.std::_Vector_base"* %16) #3
  invoke void @_ZSt8_DestroyIPiiEvT_S1_RSaIT0_E(i32* %10, i32* %15, %"class.std::allocator"* dereferenceable(1) %17)
          to label %18 unwind label %20

18:                                               ; preds = %1
  %19 = bitcast %"class.std::vector"* %5 to %"struct.std::_Vector_base"*
  call void @_ZNSt12_Vector_baseIiSaIiEED2Ev(%"struct.std::_Vector_base"* %19) #3
  ret void

20:                                               ; preds = %1
  %21 = landingpad { i8*, i32 }
          catch i8* null
  %22 = extractvalue { i8*, i32 } %21, 0
  store i8* %22, i8** %3, align 8
  %23 = extractvalue { i8*, i32 } %21, 1
  store i32 %23, i32* %4, align 4
  %24 = bitcast %"class.std::vector"* %5 to %"struct.std::_Vector_base"*
  call void @_ZNSt12_Vector_baseIiSaIiEED2Ev(%"struct.std::_Vector_base"* %24) #3
  br label %25

25:                                               ; preds = %20
  %26 = load i8*, i8** %3, align 8
  call void @__clang_call_terminate(i8* %26) #12
  unreachable
}

; Function Attrs: noinline nounwind optnone uwtable
define linkonce_odr dso_local void @_ZNSt12_Vector_baseIiSaIiEEC2Ev(%"struct.std::_Vector_base"* %0) unnamed_addr #6 comdat align 2 {
  %2 = alloca %"struct.std::_Vector_base"*, align 8
  store %"struct.std::_Vector_base"* %0, %"struct.std::_Vector_base"** %2, align 8
  %3 = load %"struct.std::_Vector_base"*, %"struct.std::_Vector_base"** %2, align 8
  %4 = getelementptr inbounds %"struct.std::_Vector_base", %"struct.std::_Vector_base"* %3, i32 0, i32 0
  call void @_ZNSt12_Vector_baseIiSaIiEE12_Vector_implC2Ev(%"struct.std::_Vector_base<int, std::allocator<int> >::_Vector_impl"* %4) #3
  ret void
}

; Function Attrs: noinline nounwind optnone uwtable
define linkonce_odr dso_local void @_ZNSt12_Vector_baseIiSaIiEE12_Vector_implC2Ev(%"struct.std::_Vector_base<int, std::allocator<int> >::_Vector_impl"* %0) unnamed_addr #6 comdat align 2 {
  %2 = alloca %"struct.std::_Vector_base<int, std::allocator<int> >::_Vector_impl"*, align 8
  store %"struct.std::_Vector_base<int, std::allocator<int> >::_Vector_impl"* %0, %"struct.std::_Vector_base<int, std::allocator<int> >::_Vector_impl"** %2, align 8
  %3 = load %"struct.std::_Vector_base<int, std::allocator<int> >::_Vector_impl"*, %"struct.std::_Vector_base<int, std::allocator<int> >::_Vector_impl"** %2, align 8
  %4 = bitcast %"struct.std::_Vector_base<int, std::allocator<int> >::_Vector_impl"* %3 to %"class.std::allocator"*
  call void @_ZNSaIiEC2Ev(%"class.std::allocator"* %4) #3
  %5 = bitcast %"struct.std::_Vector_base<int, std::allocator<int> >::_Vector_impl"* %3 to %"struct.std::_Vector_base<int, std::allocator<int> >::_Vector_impl_data"*
  call void @_ZNSt12_Vector_baseIiSaIiEE17_Vector_impl_dataC2Ev(%"struct.std::_Vector_base<int, std::allocator<int> >::_Vector_impl_data"* %5) #3
  ret void
}

; Function Attrs: noinline nounwind optnone uwtable
define linkonce_odr dso_local void @_ZNSt12_Vector_baseIiSaIiEE17_Vector_impl_dataC2Ev(%"struct.std::_Vector_base<int, std::allocator<int> >::_Vector_impl_data"* %0) unnamed_addr #6 comdat align 2 {
  %2 = alloca %"struct.std::_Vector_base<int, std::allocator<int> >::_Vector_impl_data"*, align 8
  store %"struct.std::_Vector_base<int, std::allocator<int> >::_Vector_impl_data"* %0, %"struct.std::_Vector_base<int, std::allocator<int> >::_Vector_impl_data"** %2, align 8
  %3 = load %"struct.std::_Vector_base<int, std::allocator<int> >::_Vector_impl_data"*, %"struct.std::_Vector_base<int, std::allocator<int> >::_Vector_impl_data"** %2, align 8
  %4 = getelementptr inbounds %"struct.std::_Vector_base<int, std::allocator<int> >::_Vector_impl_data", %"struct.std::_Vector_base<int, std::allocator<int> >::_Vector_impl_data"* %3, i32 0, i32 0
  store i32* null, i32** %4, align 8
  %5 = getelementptr inbounds %"struct.std::_Vector_base<int, std::allocator<int> >::_Vector_impl_data", %"struct.std::_Vector_base<int, std::allocator<int> >::_Vector_impl_data"* %3, i32 0, i32 1
  store i32* null, i32** %5, align 8
  %6 = getelementptr inbounds %"struct.std::_Vector_base<int, std::allocator<int> >::_Vector_impl_data", %"struct.std::_Vector_base<int, std::allocator<int> >::_Vector_impl_data"* %3, i32 0, i32 2
  store i32* null, i32** %6, align 8
  ret void
}

; Function Attrs: noinline nounwind optnone uwtable
define linkonce_odr dso_local void @_ZN9__gnu_cxx13new_allocatorIiEC2Ev(%"class.__gnu_cxx::new_allocator"* %0) unnamed_addr #6 comdat align 2 {
  %2 = alloca %"class.__gnu_cxx::new_allocator"*, align 8
  store %"class.__gnu_cxx::new_allocator"* %0, %"class.__gnu_cxx::new_allocator"** %2, align 8
  %3 = load %"class.__gnu_cxx::new_allocator"*, %"class.__gnu_cxx::new_allocator"** %2, align 8
  ret void
}

; Function Attrs: noinline nounwind optnone uwtable
define linkonce_odr dso_local void @_ZN9__gnu_cxx13new_allocatorIiED2Ev(%"class.__gnu_cxx::new_allocator"* %0) unnamed_addr #6 comdat align 2 {
  %2 = alloca %"class.__gnu_cxx::new_allocator"*, align 8
  store %"class.__gnu_cxx::new_allocator"* %0, %"class.__gnu_cxx::new_allocator"** %2, align 8
  %3 = load %"class.__gnu_cxx::new_allocator"*, %"class.__gnu_cxx::new_allocator"** %2, align 8
  ret void
}

; Function Attrs: noinline nounwind optnone uwtable
define linkonce_odr dso_local void @_ZNSt12_Vector_baseIiSaIiEEC2ERKS0_(%"struct.std::_Vector_base"* %0, %"class.std::allocator"* dereferenceable(1) %1) unnamed_addr #6 comdat align 2 {
  %3 = alloca %"struct.std::_Vector_base"*, align 8
  %4 = alloca %"class.std::allocator"*, align 8
  store %"struct.std::_Vector_base"* %0, %"struct.std::_Vector_base"** %3, align 8
  store %"class.std::allocator"* %1, %"class.std::allocator"** %4, align 8
  %5 = load %"struct.std::_Vector_base"*, %"struct.std::_Vector_base"** %3, align 8
  %6 = getelementptr inbounds %"struct.std::_Vector_base", %"struct.std::_Vector_base"* %5, i32 0, i32 0
  %7 = load %"class.std::allocator"*, %"class.std::allocator"** %4, align 8
  call void @_ZNSt12_Vector_baseIiSaIiEE12_Vector_implC2ERKS0_(%"struct.std::_Vector_base<int, std::allocator<int> >::_Vector_impl"* %6, %"class.std::allocator"* dereferenceable(1) %7) #3
  ret void
}

; Function Attrs: noinline optnone uwtable
define linkonce_odr dso_local void @_ZNSt6vectorIiSaIiEE19_M_range_initializeIPKiEEvT_S5_St20forward_iterator_tag(%"class.std::vector"* %0, i32* %1, i32* %2) #7 comdat align 2 {
  %4 = alloca %"struct.std::forward_iterator_tag", align 1
  %5 = alloca %"class.std::vector"*, align 8
  %6 = alloca i32*, align 8
  %7 = alloca i32*, align 8
  %8 = alloca i64, align 8
  store %"class.std::vector"* %0, %"class.std::vector"** %5, align 8
  store i32* %1, i32** %6, align 8
  store i32* %2, i32** %7, align 8
  %9 = load %"class.std::vector"*, %"class.std::vector"** %5, align 8
  %10 = load i32*, i32** %6, align 8
  %11 = load i32*, i32** %7, align 8
  %12 = call i64 @_ZSt8distanceIPKiENSt15iterator_traitsIT_E15difference_typeES3_S3_(i32* %10, i32* %11)
  store i64 %12, i64* %8, align 8
  %13 = bitcast %"class.std::vector"* %9 to %"struct.std::_Vector_base"*
  %14 = load i64, i64* %8, align 8
  %15 = bitcast %"class.std::vector"* %9 to %"struct.std::_Vector_base"*
  %16 = call dereferenceable(1) %"class.std::allocator"* @_ZNSt12_Vector_baseIiSaIiEE19_M_get_Tp_allocatorEv(%"struct.std::_Vector_base"* %15) #3
  %17 = call i64 @_ZNSt6vectorIiSaIiEE17_S_check_init_lenEmRKS0_(i64 %14, %"class.std::allocator"* dereferenceable(1) %16)
  %18 = call i32* @_ZNSt12_Vector_baseIiSaIiEE11_M_allocateEm(%"struct.std::_Vector_base"* %13, i64 %17)
  %19 = bitcast %"class.std::vector"* %9 to %"struct.std::_Vector_base"*
  %20 = getelementptr inbounds %"struct.std::_Vector_base", %"struct.std::_Vector_base"* %19, i32 0, i32 0
  %21 = bitcast %"struct.std::_Vector_base<int, std::allocator<int> >::_Vector_impl"* %20 to %"struct.std::_Vector_base<int, std::allocator<int> >::_Vector_impl_data"*
  %22 = getelementptr inbounds %"struct.std::_Vector_base<int, std::allocator<int> >::_Vector_impl_data", %"struct.std::_Vector_base<int, std::allocator<int> >::_Vector_impl_data"* %21, i32 0, i32 0
  store i32* %18, i32** %22, align 8
  %23 = bitcast %"class.std::vector"* %9 to %"struct.std::_Vector_base"*
  %24 = getelementptr inbounds %"struct.std::_Vector_base", %"struct.std::_Vector_base"* %23, i32 0, i32 0
  %25 = bitcast %"struct.std::_Vector_base<int, std::allocator<int> >::_Vector_impl"* %24 to %"struct.std::_Vector_base<int, std::allocator<int> >::_Vector_impl_data"*
  %26 = getelementptr inbounds %"struct.std::_Vector_base<int, std::allocator<int> >::_Vector_impl_data", %"struct.std::_Vector_base<int, std::allocator<int> >::_Vector_impl_data"* %25, i32 0, i32 0
  %27 = load i32*, i32** %26, align 8
  %28 = load i64, i64* %8, align 8
  %29 = getelementptr inbounds i32, i32* %27, i64 %28
  %30 = bitcast %"class.std::vector"* %9 to %"struct.std::_Vector_base"*
  %31 = getelementptr inbounds %"struct.std::_Vector_base", %"struct.std::_Vector_base"* %30, i32 0, i32 0
  %32 = bitcast %"struct.std::_Vector_base<int, std::allocator<int> >::_Vector_impl"* %31 to %"struct.std::_Vector_base<int, std::allocator<int> >::_Vector_impl_data"*
  %33 = getelementptr inbounds %"struct.std::_Vector_base<int, std::allocator<int> >::_Vector_impl_data", %"struct.std::_Vector_base<int, std::allocator<int> >::_Vector_impl_data"* %32, i32 0, i32 2
  store i32* %29, i32** %33, align 8
  %34 = load i32*, i32** %6, align 8
  %35 = load i32*, i32** %7, align 8
  %36 = bitcast %"class.std::vector"* %9 to %"struct.std::_Vector_base"*
  %37 = getelementptr inbounds %"struct.std::_Vector_base", %"struct.std::_Vector_base"* %36, i32 0, i32 0
  %38 = bitcast %"struct.std::_Vector_base<int, std::allocator<int> >::_Vector_impl"* %37 to %"struct.std::_Vector_base<int, std::allocator<int> >::_Vector_impl_data"*
  %39 = getelementptr inbounds %"struct.std::_Vector_base<int, std::allocator<int> >::_Vector_impl_data", %"struct.std::_Vector_base<int, std::allocator<int> >::_Vector_impl_data"* %38, i32 0, i32 0
  %40 = load i32*, i32** %39, align 8
  %41 = bitcast %"class.std::vector"* %9 to %"struct.std::_Vector_base"*
  %42 = call dereferenceable(1) %"class.std::allocator"* @_ZNSt12_Vector_baseIiSaIiEE19_M_get_Tp_allocatorEv(%"struct.std::_Vector_base"* %41) #3
  %43 = call i32* @_ZSt22__uninitialized_copy_aIPKiPiiET0_T_S4_S3_RSaIT1_E(i32* %34, i32* %35, i32* %40, %"class.std::allocator"* dereferenceable(1) %42)
  %44 = bitcast %"class.std::vector"* %9 to %"struct.std::_Vector_base"*
  %45 = getelementptr inbounds %"struct.std::_Vector_base", %"struct.std::_Vector_base"* %44, i32 0, i32 0
  %46 = bitcast %"struct.std::_Vector_base<int, std::allocator<int> >::_Vector_impl"* %45 to %"struct.std::_Vector_base<int, std::allocator<int> >::_Vector_impl_data"*
  %47 = getelementptr inbounds %"struct.std::_Vector_base<int, std::allocator<int> >::_Vector_impl_data", %"struct.std::_Vector_base<int, std::allocator<int> >::_Vector_impl_data"* %46, i32 0, i32 1
  store i32* %43, i32** %47, align 8
  ret void
}

; Function Attrs: noinline nounwind optnone uwtable
define linkonce_odr dso_local i32* @_ZNKSt16initializer_listIiE5beginEv(%"class.std::initializer_list"* %0) #6 comdat align 2 {
  %2 = alloca %"class.std::initializer_list"*, align 8
  store %"class.std::initializer_list"* %0, %"class.std::initializer_list"** %2, align 8
  %3 = load %"class.std::initializer_list"*, %"class.std::initializer_list"** %2, align 8
  %4 = getelementptr inbounds %"class.std::initializer_list", %"class.std::initializer_list"* %3, i32 0, i32 0
  %5 = load i32*, i32** %4, align 8
  ret i32* %5
}

; Function Attrs: noinline nounwind optnone uwtable
define linkonce_odr dso_local i32* @_ZNKSt16initializer_listIiE3endEv(%"class.std::initializer_list"* %0) #6 comdat align 2 {
  %2 = alloca %"class.std::initializer_list"*, align 8
  store %"class.std::initializer_list"* %0, %"class.std::initializer_list"** %2, align 8
  %3 = load %"class.std::initializer_list"*, %"class.std::initializer_list"** %2, align 8
  %4 = call i32* @_ZNKSt16initializer_listIiE5beginEv(%"class.std::initializer_list"* %3) #3
  %5 = call i64 @_ZNKSt16initializer_listIiE4sizeEv(%"class.std::initializer_list"* %3) #3
  %6 = getelementptr inbounds i32, i32* %4, i64 %5
  ret i32* %6
}

; Function Attrs: noinline nounwind optnone uwtable
define linkonce_odr dso_local void @_ZNSt12_Vector_baseIiSaIiEED2Ev(%"struct.std::_Vector_base"* %0) unnamed_addr #6 comdat align 2 personality i8* bitcast (i32 (...)* @__gxx_personality_v0 to i8*) {
  %2 = alloca %"struct.std::_Vector_base"*, align 8
  %3 = alloca i8*
  %4 = alloca i32
  store %"struct.std::_Vector_base"* %0, %"struct.std::_Vector_base"** %2, align 8
  %5 = load %"struct.std::_Vector_base"*, %"struct.std::_Vector_base"** %2, align 8
  %6 = getelementptr inbounds %"struct.std::_Vector_base", %"struct.std::_Vector_base"* %5, i32 0, i32 0
  %7 = bitcast %"struct.std::_Vector_base<int, std::allocator<int> >::_Vector_impl"* %6 to %"struct.std::_Vector_base<int, std::allocator<int> >::_Vector_impl_data"*
  %8 = getelementptr inbounds %"struct.std::_Vector_base<int, std::allocator<int> >::_Vector_impl_data", %"struct.std::_Vector_base<int, std::allocator<int> >::_Vector_impl_data"* %7, i32 0, i32 0
  %9 = load i32*, i32** %8, align 8
  %10 = getelementptr inbounds %"struct.std::_Vector_base", %"struct.std::_Vector_base"* %5, i32 0, i32 0
  %11 = bitcast %"struct.std::_Vector_base<int, std::allocator<int> >::_Vector_impl"* %10 to %"struct.std::_Vector_base<int, std::allocator<int> >::_Vector_impl_data"*
  %12 = getelementptr inbounds %"struct.std::_Vector_base<int, std::allocator<int> >::_Vector_impl_data", %"struct.std::_Vector_base<int, std::allocator<int> >::_Vector_impl_data"* %11, i32 0, i32 2
  %13 = load i32*, i32** %12, align 8
  %14 = getelementptr inbounds %"struct.std::_Vector_base", %"struct.std::_Vector_base"* %5, i32 0, i32 0
  %15 = bitcast %"struct.std::_Vector_base<int, std::allocator<int> >::_Vector_impl"* %14 to %"struct.std::_Vector_base<int, std::allocator<int> >::_Vector_impl_data"*
  %16 = getelementptr inbounds %"struct.std::_Vector_base<int, std::allocator<int> >::_Vector_impl_data", %"struct.std::_Vector_base<int, std::allocator<int> >::_Vector_impl_data"* %15, i32 0, i32 0
  %17 = load i32*, i32** %16, align 8
  %18 = ptrtoint i32* %13 to i64
  %19 = ptrtoint i32* %17 to i64
  %20 = sub i64 %18, %19
  %21 = sdiv exact i64 %20, 4
  invoke void @_ZNSt12_Vector_baseIiSaIiEE13_M_deallocateEPim(%"struct.std::_Vector_base"* %5, i32* %9, i64 %21)
          to label %22 unwind label %24

22:                                               ; preds = %1
  %23 = getelementptr inbounds %"struct.std::_Vector_base", %"struct.std::_Vector_base"* %5, i32 0, i32 0
  call void @_ZNSt12_Vector_baseIiSaIiEE12_Vector_implD2Ev(%"struct.std::_Vector_base<int, std::allocator<int> >::_Vector_impl"* %23) #3
  ret void

24:                                               ; preds = %1
  %25 = landingpad { i8*, i32 }
          catch i8* null
  %26 = extractvalue { i8*, i32 } %25, 0
  store i8* %26, i8** %3, align 8
  %27 = extractvalue { i8*, i32 } %25, 1
  store i32 %27, i32* %4, align 4
  %28 = getelementptr inbounds %"struct.std::_Vector_base", %"struct.std::_Vector_base"* %5, i32 0, i32 0
  call void @_ZNSt12_Vector_baseIiSaIiEE12_Vector_implD2Ev(%"struct.std::_Vector_base<int, std::allocator<int> >::_Vector_impl"* %28) #3
  br label %29

29:                                               ; preds = %24
  %30 = load i8*, i8** %3, align 8
  call void @__clang_call_terminate(i8* %30) #12
  unreachable
}

; Function Attrs: noinline nounwind optnone uwtable
define linkonce_odr dso_local void @_ZNSt12_Vector_baseIiSaIiEE12_Vector_implC2ERKS0_(%"struct.std::_Vector_base<int, std::allocator<int> >::_Vector_impl"* %0, %"class.std::allocator"* dereferenceable(1) %1) unnamed_addr #6 comdat align 2 {
  %3 = alloca %"struct.std::_Vector_base<int, std::allocator<int> >::_Vector_impl"*, align 8
  %4 = alloca %"class.std::allocator"*, align 8
  store %"struct.std::_Vector_base<int, std::allocator<int> >::_Vector_impl"* %0, %"struct.std::_Vector_base<int, std::allocator<int> >::_Vector_impl"** %3, align 8
  store %"class.std::allocator"* %1, %"class.std::allocator"** %4, align 8
  %5 = load %"struct.std::_Vector_base<int, std::allocator<int> >::_Vector_impl"*, %"struct.std::_Vector_base<int, std::allocator<int> >::_Vector_impl"** %3, align 8
  %6 = bitcast %"struct.std::_Vector_base<int, std::allocator<int> >::_Vector_impl"* %5 to %"class.std::allocator"*
  %7 = load %"class.std::allocator"*, %"class.std::allocator"** %4, align 8
  call void @_ZNSaIiEC2ERKS_(%"class.std::allocator"* %6, %"class.std::allocator"* dereferenceable(1) %7) #3
  %8 = bitcast %"struct.std::_Vector_base<int, std::allocator<int> >::_Vector_impl"* %5 to %"struct.std::_Vector_base<int, std::allocator<int> >::_Vector_impl_data"*
  call void @_ZNSt12_Vector_baseIiSaIiEE17_Vector_impl_dataC2Ev(%"struct.std::_Vector_base<int, std::allocator<int> >::_Vector_impl_data"* %8) #3
  ret void
}

; Function Attrs: noinline nounwind optnone uwtable
define linkonce_odr dso_local void @_ZN9__gnu_cxx13new_allocatorIiEC2ERKS1_(%"class.__gnu_cxx::new_allocator"* %0, %"class.__gnu_cxx::new_allocator"* dereferenceable(1) %1) unnamed_addr #6 comdat align 2 {
  %3 = alloca %"class.__gnu_cxx::new_allocator"*, align 8
  %4 = alloca %"class.__gnu_cxx::new_allocator"*, align 8
  store %"class.__gnu_cxx::new_allocator"* %0, %"class.__gnu_cxx::new_allocator"** %3, align 8
  store %"class.__gnu_cxx::new_allocator"* %1, %"class.__gnu_cxx::new_allocator"** %4, align 8
  %5 = load %"class.__gnu_cxx::new_allocator"*, %"class.__gnu_cxx::new_allocator"** %3, align 8
  ret void
}

; Function Attrs: noinline optnone uwtable
define linkonce_odr dso_local i64 @_ZSt8distanceIPKiENSt15iterator_traitsIT_E15difference_typeES3_S3_(i32* %0, i32* %1) #7 comdat {
  %3 = alloca i32*, align 8
  %4 = alloca i32*, align 8
  %5 = alloca %"struct.std::random_access_iterator_tag", align 1
  %6 = alloca %"struct.std::random_access_iterator_tag", align 1
  store i32* %0, i32** %3, align 8
  store i32* %1, i32** %4, align 8
  %7 = load i32*, i32** %3, align 8
  %8 = load i32*, i32** %4, align 8
  call void @_ZSt19__iterator_categoryIPKiENSt15iterator_traitsIT_E17iterator_categoryERKS3_(i32** dereferenceable(8) %3)
  %9 = call i64 @_ZSt10__distanceIPKiENSt15iterator_traitsIT_E15difference_typeES3_S3_St26random_access_iterator_tag(i32* %7, i32* %8)
  ret i64 %9
}

; Function Attrs: noinline optnone uwtable
define linkonce_odr dso_local i32* @_ZNSt12_Vector_baseIiSaIiEE11_M_allocateEm(%"struct.std::_Vector_base"* %0, i64 %1) #7 comdat align 2 {
  %3 = alloca %"struct.std::_Vector_base"*, align 8
  %4 = alloca i64, align 8
  store %"struct.std::_Vector_base"* %0, %"struct.std::_Vector_base"** %3, align 8
  store i64 %1, i64* %4, align 8
  %5 = load %"struct.std::_Vector_base"*, %"struct.std::_Vector_base"** %3, align 8
  %6 = load i64, i64* %4, align 8
  %7 = icmp ne i64 %6, 0
  br i1 %7, label %8, label %13

8:                                                ; preds = %2
  %9 = getelementptr inbounds %"struct.std::_Vector_base", %"struct.std::_Vector_base"* %5, i32 0, i32 0
  %10 = bitcast %"struct.std::_Vector_base<int, std::allocator<int> >::_Vector_impl"* %9 to %"class.std::allocator"*
  %11 = load i64, i64* %4, align 8
  %12 = call i32* @_ZNSt16allocator_traitsISaIiEE8allocateERS0_m(%"class.std::allocator"* dereferenceable(1) %10, i64 %11)
  br label %14

13:                                               ; preds = %2
  br label %14

14:                                               ; preds = %13, %8
  %15 = phi i32* [ %12, %8 ], [ null, %13 ]
  ret i32* %15
}

; Function Attrs: noinline optnone uwtable
define linkonce_odr dso_local i64 @_ZNSt6vectorIiSaIiEE17_S_check_init_lenEmRKS0_(i64 %0, %"class.std::allocator"* dereferenceable(1) %1) #7 comdat align 2 {
  %3 = alloca i64, align 8
  %4 = alloca %"class.std::allocator"*, align 8
  %5 = alloca %"class.std::allocator", align 1
  store i64 %0, i64* %3, align 8
  store %"class.std::allocator"* %1, %"class.std::allocator"** %4, align 8
  %6 = load i64, i64* %3, align 8
  %7 = load %"class.std::allocator"*, %"class.std::allocator"** %4, align 8
  call void @_ZNSaIiEC2ERKS_(%"class.std::allocator"* %5, %"class.std::allocator"* dereferenceable(1) %7) #3
  %8 = call i64 @_ZNSt6vectorIiSaIiEE11_S_max_sizeERKS0_(%"class.std::allocator"* dereferenceable(1) %5) #3
  %9 = icmp ugt i64 %6, %8
  call void @_ZNSaIiED2Ev(%"class.std::allocator"* %5) #3
  br i1 %9, label %10, label %11

10:                                               ; preds = %2
  call void @_ZSt20__throw_length_errorPKc(i8* getelementptr inbounds ([49 x i8], [49 x i8]* @.str.1, i64 0, i64 0)) #13
  unreachable

11:                                               ; preds = %2
  %12 = load i64, i64* %3, align 8
  ret i64 %12
}

; Function Attrs: noinline nounwind optnone uwtable
define linkonce_odr dso_local dereferenceable(1) %"class.std::allocator"* @_ZNSt12_Vector_baseIiSaIiEE19_M_get_Tp_allocatorEv(%"struct.std::_Vector_base"* %0) #6 comdat align 2 {
  %2 = alloca %"struct.std::_Vector_base"*, align 8
  store %"struct.std::_Vector_base"* %0, %"struct.std::_Vector_base"** %2, align 8
  %3 = load %"struct.std::_Vector_base"*, %"struct.std::_Vector_base"** %2, align 8
  %4 = getelementptr inbounds %"struct.std::_Vector_base", %"struct.std::_Vector_base"* %3, i32 0, i32 0
  %5 = bitcast %"struct.std::_Vector_base<int, std::allocator<int> >::_Vector_impl"* %4 to %"class.std::allocator"*
  ret %"class.std::allocator"* %5
}

; Function Attrs: noinline optnone uwtable
define linkonce_odr dso_local i32* @_ZSt22__uninitialized_copy_aIPKiPiiET0_T_S4_S3_RSaIT1_E(i32* %0, i32* %1, i32* %2, %"class.std::allocator"* dereferenceable(1) %3) #7 comdat {
  %5 = alloca i32*, align 8
  %6 = alloca i32*, align 8
  %7 = alloca i32*, align 8
  %8 = alloca %"class.std::allocator"*, align 8
  store i32* %0, i32** %5, align 8
  store i32* %1, i32** %6, align 8
  store i32* %2, i32** %7, align 8
  store %"class.std::allocator"* %3, %"class.std::allocator"** %8, align 8
  %9 = load i32*, i32** %5, align 8
  %10 = load i32*, i32** %6, align 8
  %11 = load i32*, i32** %7, align 8
  %12 = call i32* @_ZSt18uninitialized_copyIPKiPiET0_T_S4_S3_(i32* %9, i32* %10, i32* %11)
  ret i32* %12
}

; Function Attrs: noinline nounwind optnone uwtable
define linkonce_odr dso_local i64 @_ZSt10__distanceIPKiENSt15iterator_traitsIT_E15difference_typeES3_S3_St26random_access_iterator_tag(i32* %0, i32* %1) #6 comdat {
  %3 = alloca %"struct.std::random_access_iterator_tag", align 1
  %4 = alloca i32*, align 8
  %5 = alloca i32*, align 8
  store i32* %0, i32** %4, align 8
  store i32* %1, i32** %5, align 8
  %6 = load i32*, i32** %5, align 8
  %7 = load i32*, i32** %4, align 8
  %8 = ptrtoint i32* %6 to i64
  %9 = ptrtoint i32* %7 to i64
  %10 = sub i64 %8, %9
  %11 = sdiv exact i64 %10, 4
  ret i64 %11
}

; Function Attrs: noinline nounwind optnone uwtable
define linkonce_odr dso_local void @_ZSt19__iterator_categoryIPKiENSt15iterator_traitsIT_E17iterator_categoryERKS3_(i32** dereferenceable(8) %0) #6 comdat {
  %2 = alloca i32**, align 8
  store i32** %0, i32*** %2, align 8
  ret void
}

; Function Attrs: noinline optnone uwtable
define linkonce_odr dso_local i32* @_ZNSt16allocator_traitsISaIiEE8allocateERS0_m(%"class.std::allocator"* dereferenceable(1) %0, i64 %1) #7 comdat align 2 {
  %3 = alloca %"class.std::allocator"*, align 8
  %4 = alloca i64, align 8
  store %"class.std::allocator"* %0, %"class.std::allocator"** %3, align 8
  store i64 %1, i64* %4, align 8
  %5 = load %"class.std::allocator"*, %"class.std::allocator"** %3, align 8
  %6 = bitcast %"class.std::allocator"* %5 to %"class.__gnu_cxx::new_allocator"*
  %7 = load i64, i64* %4, align 8
  %8 = call i32* @_ZN9__gnu_cxx13new_allocatorIiE8allocateEmPKv(%"class.__gnu_cxx::new_allocator"* %6, i64 %7, i8* null)
  ret i32* %8
}

; Function Attrs: noinline optnone uwtable
define linkonce_odr dso_local i32* @_ZN9__gnu_cxx13new_allocatorIiE8allocateEmPKv(%"class.__gnu_cxx::new_allocator"* %0, i64 %1, i8* %2) #7 comdat align 2 {
  %4 = alloca %"class.__gnu_cxx::new_allocator"*, align 8
  %5 = alloca i64, align 8
  %6 = alloca i8*, align 8
  store %"class.__gnu_cxx::new_allocator"* %0, %"class.__gnu_cxx::new_allocator"** %4, align 8
  store i64 %1, i64* %5, align 8
  store i8* %2, i8** %6, align 8
  %7 = load %"class.__gnu_cxx::new_allocator"*, %"class.__gnu_cxx::new_allocator"** %4, align 8
  %8 = load i64, i64* %5, align 8
  %9 = call i64 @_ZNK9__gnu_cxx13new_allocatorIiE8max_sizeEv(%"class.__gnu_cxx::new_allocator"* %7) #3
  %10 = icmp ugt i64 %8, %9
  br i1 %10, label %11, label %12

11:                                               ; preds = %3
  call void @_ZSt17__throw_bad_allocv() #13
  unreachable

12:                                               ; preds = %3
  %13 = load i64, i64* %5, align 8
  %14 = mul i64 %13, 4
  %15 = call i8* @_Znwm(i64 %14)
  %16 = bitcast i8* %15 to i32*
  ret i32* %16
}

; Function Attrs: noinline nounwind optnone uwtable
define linkonce_odr dso_local i64 @_ZNK9__gnu_cxx13new_allocatorIiE8max_sizeEv(%"class.__gnu_cxx::new_allocator"* %0) #6 comdat align 2 {
  %2 = alloca %"class.__gnu_cxx::new_allocator"*, align 8
  store %"class.__gnu_cxx::new_allocator"* %0, %"class.__gnu_cxx::new_allocator"** %2, align 8
  %3 = load %"class.__gnu_cxx::new_allocator"*, %"class.__gnu_cxx::new_allocator"** %2, align 8
  ret i64 2305843009213693951
}

; Function Attrs: noreturn
declare dso_local void @_ZSt17__throw_bad_allocv() #8

; Function Attrs: nobuiltin
declare dso_local noalias i8* @_Znwm(i64) #9

; Function Attrs: noinline nounwind optnone uwtable
define linkonce_odr dso_local i64 @_ZNSt6vectorIiSaIiEE11_S_max_sizeERKS0_(%"class.std::allocator"* dereferenceable(1) %0) #6 comdat align 2 personality i8* bitcast (i32 (...)* @__gxx_personality_v0 to i8*) {
  %2 = alloca %"class.std::allocator"*, align 8
  %3 = alloca i64, align 8
  %4 = alloca i64, align 8
  store %"class.std::allocator"* %0, %"class.std::allocator"** %2, align 8
  store i64 2305843009213693951, i64* %3, align 8
  %5 = load %"class.std::allocator"*, %"class.std::allocator"** %2, align 8
  %6 = call i64 @_ZNSt16allocator_traitsISaIiEE8max_sizeERKS0_(%"class.std::allocator"* dereferenceable(1) %5) #3
  store i64 %6, i64* %4, align 8
  %7 = invoke dereferenceable(8) i64* @_ZSt3minImERKT_S2_S2_(i64* dereferenceable(8) %3, i64* dereferenceable(8) %4)
          to label %8 unwind label %10

8:                                                ; preds = %1
  %9 = load i64, i64* %7, align 8
  ret i64 %9

10:                                               ; preds = %1
  %11 = landingpad { i8*, i32 }
          catch i8* null
  %12 = extractvalue { i8*, i32 } %11, 0
  call void @__clang_call_terminate(i8* %12) #12
  unreachable
}

; Function Attrs: noinline nounwind optnone uwtable
define linkonce_odr dso_local void @_ZNSaIiEC2ERKS_(%"class.std::allocator"* %0, %"class.std::allocator"* dereferenceable(1) %1) unnamed_addr #6 comdat align 2 {
  %3 = alloca %"class.std::allocator"*, align 8
  %4 = alloca %"class.std::allocator"*, align 8
  store %"class.std::allocator"* %0, %"class.std::allocator"** %3, align 8
  store %"class.std::allocator"* %1, %"class.std::allocator"** %4, align 8
  %5 = load %"class.std::allocator"*, %"class.std::allocator"** %3, align 8
  %6 = bitcast %"class.std::allocator"* %5 to %"class.__gnu_cxx::new_allocator"*
  %7 = load %"class.std::allocator"*, %"class.std::allocator"** %4, align 8
  %8 = bitcast %"class.std::allocator"* %7 to %"class.__gnu_cxx::new_allocator"*
  call void @_ZN9__gnu_cxx13new_allocatorIiEC2ERKS1_(%"class.__gnu_cxx::new_allocator"* %6, %"class.__gnu_cxx::new_allocator"* dereferenceable(1) %8) #3
  ret void
}

; Function Attrs: noreturn
declare dso_local void @_ZSt20__throw_length_errorPKc(i8*) #8

; Function Attrs: noinline nounwind optnone uwtable
define linkonce_odr dso_local i64 @_ZNSt16allocator_traitsISaIiEE8max_sizeERKS0_(%"class.std::allocator"* dereferenceable(1) %0) #6 comdat align 2 {
  %2 = alloca %"class.std::allocator"*, align 8
  store %"class.std::allocator"* %0, %"class.std::allocator"** %2, align 8
  %3 = load %"class.std::allocator"*, %"class.std::allocator"** %2, align 8
  %4 = bitcast %"class.std::allocator"* %3 to %"class.__gnu_cxx::new_allocator"*
  %5 = call i64 @_ZNK9__gnu_cxx13new_allocatorIiE8max_sizeEv(%"class.__gnu_cxx::new_allocator"* %4) #3
  ret i64 %5
}

; Function Attrs: noinline nounwind optnone uwtable
define linkonce_odr dso_local dereferenceable(8) i64* @_ZSt3minImERKT_S2_S2_(i64* dereferenceable(8) %0, i64* dereferenceable(8) %1) #6 comdat {
  %3 = alloca i64*, align 8
  %4 = alloca i64*, align 8
  %5 = alloca i64*, align 8
  store i64* %0, i64** %4, align 8
  store i64* %1, i64** %5, align 8
  %6 = load i64*, i64** %5, align 8
  %7 = load i64, i64* %6, align 8
  %8 = load i64*, i64** %4, align 8
  %9 = load i64, i64* %8, align 8
  %10 = icmp ult i64 %7, %9
  br i1 %10, label %11, label %13

11:                                               ; preds = %2
  %12 = load i64*, i64** %5, align 8
  store i64* %12, i64** %3, align 8
  br label %15

13:                                               ; preds = %2
  %14 = load i64*, i64** %4, align 8
  store i64* %14, i64** %3, align 8
  br label %15

15:                                               ; preds = %13, %11
  %16 = load i64*, i64** %3, align 8
  ret i64* %16
}

; Function Attrs: noinline noreturn nounwind
define linkonce_odr hidden void @__clang_call_terminate(i8* %0) #10 comdat {
  %2 = call i8* @__cxa_begin_catch(i8* %0) #3
  call void @_ZSt9terminatev() #12
  unreachable
}

declare dso_local i8* @__cxa_begin_catch(i8*)

declare dso_local void @_ZSt9terminatev()

; Function Attrs: noinline optnone uwtable
define linkonce_odr dso_local i32* @_ZSt18uninitialized_copyIPKiPiET0_T_S4_S3_(i32* %0, i32* %1, i32* %2) #7 comdat {
  %4 = alloca i32*, align 8
  %5 = alloca i32*, align 8
  %6 = alloca i32*, align 8
  %7 = alloca i8, align 1
  store i32* %0, i32** %4, align 8
  store i32* %1, i32** %5, align 8
  store i32* %2, i32** %6, align 8
  store i8 1, i8* %7, align 1
  %8 = load i32*, i32** %4, align 8
  %9 = load i32*, i32** %5, align 8
  %10 = load i32*, i32** %6, align 8
  %11 = call i32* @_ZNSt20__uninitialized_copyILb1EE13__uninit_copyIPKiPiEET0_T_S6_S5_(i32* %8, i32* %9, i32* %10)
  ret i32* %11
}

; Function Attrs: noinline optnone uwtable
define linkonce_odr dso_local i32* @_ZNSt20__uninitialized_copyILb1EE13__uninit_copyIPKiPiEET0_T_S6_S5_(i32* %0, i32* %1, i32* %2) #7 comdat align 2 {
  %4 = alloca i32*, align 8
  %5 = alloca i32*, align 8
  %6 = alloca i32*, align 8
  store i32* %0, i32** %4, align 8
  store i32* %1, i32** %5, align 8
  store i32* %2, i32** %6, align 8
  %7 = load i32*, i32** %4, align 8
  %8 = load i32*, i32** %5, align 8
  %9 = load i32*, i32** %6, align 8
  %10 = call i32* @_ZSt4copyIPKiPiET0_T_S4_S3_(i32* %7, i32* %8, i32* %9)
  ret i32* %10
}

; Function Attrs: noinline optnone uwtable
define linkonce_odr dso_local i32* @_ZSt4copyIPKiPiET0_T_S4_S3_(i32* %0, i32* %1, i32* %2) #7 comdat {
  %4 = alloca i32*, align 8
  %5 = alloca i32*, align 8
  %6 = alloca i32*, align 8
  store i32* %0, i32** %4, align 8
  store i32* %1, i32** %5, align 8
  store i32* %2, i32** %6, align 8
  %7 = load i32*, i32** %4, align 8
  %8 = call i32* @_ZSt12__miter_baseIPKiET_S2_(i32* %7)
  %9 = load i32*, i32** %5, align 8
  %10 = call i32* @_ZSt12__miter_baseIPKiET_S2_(i32* %9)
  %11 = load i32*, i32** %6, align 8
  %12 = call i32* @_ZSt14__copy_move_a2ILb0EPKiPiET1_T0_S4_S3_(i32* %8, i32* %10, i32* %11)
  ret i32* %12
}

; Function Attrs: noinline optnone uwtable
define linkonce_odr dso_local i32* @_ZSt14__copy_move_a2ILb0EPKiPiET1_T0_S4_S3_(i32* %0, i32* %1, i32* %2) #7 comdat {
  %4 = alloca i32*, align 8
  %5 = alloca i32*, align 8
  %6 = alloca i32*, align 8
  store i32* %0, i32** %4, align 8
  store i32* %1, i32** %5, align 8
  store i32* %2, i32** %6, align 8
  %7 = load i32*, i32** %4, align 8
  %8 = call i32* @_ZSt12__niter_baseIPKiET_S2_(i32* %7) #3
  %9 = load i32*, i32** %5, align 8
  %10 = call i32* @_ZSt12__niter_baseIPKiET_S2_(i32* %9) #3
  %11 = load i32*, i32** %6, align 8
  %12 = call i32* @_ZSt12__niter_baseIPiET_S1_(i32* %11) #3
  %13 = call i32* @_ZSt13__copy_move_aILb0EPKiPiET1_T0_S4_S3_(i32* %8, i32* %10, i32* %12)
  %14 = call i32* @_ZSt12__niter_wrapIPiET_RKS1_S1_(i32** dereferenceable(8) %6, i32* %13)
  ret i32* %14
}

; Function Attrs: noinline nounwind optnone uwtable
define linkonce_odr dso_local i32* @_ZSt12__miter_baseIPKiET_S2_(i32* %0) #6 comdat {
  %2 = alloca i32*, align 8
  store i32* %0, i32** %2, align 8
  %3 = load i32*, i32** %2, align 8
  ret i32* %3
}

; Function Attrs: noinline nounwind optnone uwtable
define linkonce_odr dso_local i32* @_ZSt12__niter_wrapIPiET_RKS1_S1_(i32** dereferenceable(8) %0, i32* %1) #6 comdat {
  %3 = alloca i32**, align 8
  %4 = alloca i32*, align 8
  store i32** %0, i32*** %3, align 8
  store i32* %1, i32** %4, align 8
  %5 = load i32*, i32** %4, align 8
  ret i32* %5
}

; Function Attrs: noinline optnone uwtable
define linkonce_odr dso_local i32* @_ZSt13__copy_move_aILb0EPKiPiET1_T0_S4_S3_(i32* %0, i32* %1, i32* %2) #7 comdat {
  %4 = alloca i32*, align 8
  %5 = alloca i32*, align 8
  %6 = alloca i32*, align 8
  %7 = alloca i8, align 1
  store i32* %0, i32** %4, align 8
  store i32* %1, i32** %5, align 8
  store i32* %2, i32** %6, align 8
  store i8 1, i8* %7, align 1
  %8 = load i32*, i32** %4, align 8
  %9 = load i32*, i32** %5, align 8
  %10 = load i32*, i32** %6, align 8
  %11 = call i32* @_ZNSt11__copy_moveILb0ELb1ESt26random_access_iterator_tagE8__copy_mIiEEPT_PKS3_S6_S4_(i32* %8, i32* %9, i32* %10)
  ret i32* %11
}

; Function Attrs: noinline nounwind optnone uwtable
define linkonce_odr dso_local i32* @_ZSt12__niter_baseIPKiET_S2_(i32* %0) #6 comdat {
  %2 = alloca i32*, align 8
  store i32* %0, i32** %2, align 8
  %3 = load i32*, i32** %2, align 8
  ret i32* %3
}

; Function Attrs: noinline nounwind optnone uwtable
define linkonce_odr dso_local i32* @_ZSt12__niter_baseIPiET_S1_(i32* %0) #6 comdat {
  %2 = alloca i32*, align 8
  store i32* %0, i32** %2, align 8
  %3 = load i32*, i32** %2, align 8
  ret i32* %3
}

; Function Attrs: noinline nounwind optnone uwtable
define linkonce_odr dso_local i32* @_ZNSt11__copy_moveILb0ELb1ESt26random_access_iterator_tagE8__copy_mIiEEPT_PKS3_S6_S4_(i32* %0, i32* %1, i32* %2) #6 comdat align 2 {
  %4 = alloca i32*, align 8
  %5 = alloca i32*, align 8
  %6 = alloca i32*, align 8
  %7 = alloca i64, align 8
  store i32* %0, i32** %4, align 8
  store i32* %1, i32** %5, align 8
  store i32* %2, i32** %6, align 8
  %8 = load i32*, i32** %5, align 8
  %9 = load i32*, i32** %4, align 8
  %10 = ptrtoint i32* %8 to i64
  %11 = ptrtoint i32* %9 to i64
  %12 = sub i64 %10, %11
  %13 = sdiv exact i64 %12, 4
  store i64 %13, i64* %7, align 8
  %14 = load i64, i64* %7, align 8
  %15 = icmp ne i64 %14, 0
  br i1 %15, label %16, label %23

16:                                               ; preds = %3
  %17 = load i32*, i32** %6, align 8
  %18 = bitcast i32* %17 to i8*
  %19 = load i32*, i32** %4, align 8
  %20 = bitcast i32* %19 to i8*
  %21 = load i64, i64* %7, align 8
  %22 = mul i64 4, %21
  call void @llvm.memmove.p0i8.p0i8.i64(i8* align 4 %18, i8* align 4 %20, i64 %22, i1 false)
  br label %23

23:                                               ; preds = %16, %3
  %24 = load i32*, i32** %6, align 8
  %25 = load i64, i64* %7, align 8
  %26 = getelementptr inbounds i32, i32* %24, i64 %25
  ret i32* %26
}

; Function Attrs: argmemonly nounwind willreturn
declare void @llvm.memmove.p0i8.p0i8.i64(i8* nocapture, i8* nocapture readonly, i64, i1 immarg) #5

; Function Attrs: noinline nounwind optnone uwtable
define linkonce_odr dso_local i64 @_ZNKSt16initializer_listIiE4sizeEv(%"class.std::initializer_list"* %0) #6 comdat align 2 {
  %2 = alloca %"class.std::initializer_list"*, align 8
  store %"class.std::initializer_list"* %0, %"class.std::initializer_list"** %2, align 8
  %3 = load %"class.std::initializer_list"*, %"class.std::initializer_list"** %2, align 8
  %4 = getelementptr inbounds %"class.std::initializer_list", %"class.std::initializer_list"* %3, i32 0, i32 1
  %5 = load i64, i64* %4, align 8
  ret i64 %5
}

; Function Attrs: noinline optnone uwtable
define linkonce_odr dso_local void @_ZNSt12_Vector_baseIiSaIiEE13_M_deallocateEPim(%"struct.std::_Vector_base"* %0, i32* %1, i64 %2) #7 comdat align 2 {
  %4 = alloca %"struct.std::_Vector_base"*, align 8
  %5 = alloca i32*, align 8
  %6 = alloca i64, align 8
  store %"struct.std::_Vector_base"* %0, %"struct.std::_Vector_base"** %4, align 8
  store i32* %1, i32** %5, align 8
  store i64 %2, i64* %6, align 8
  %7 = load %"struct.std::_Vector_base"*, %"struct.std::_Vector_base"** %4, align 8
  %8 = load i32*, i32** %5, align 8
  %9 = icmp ne i32* %8, null
  br i1 %9, label %10, label %15

10:                                               ; preds = %3
  %11 = getelementptr inbounds %"struct.std::_Vector_base", %"struct.std::_Vector_base"* %7, i32 0, i32 0
  %12 = bitcast %"struct.std::_Vector_base<int, std::allocator<int> >::_Vector_impl"* %11 to %"class.std::allocator"*
  %13 = load i32*, i32** %5, align 8
  %14 = load i64, i64* %6, align 8
  call void @_ZNSt16allocator_traitsISaIiEE10deallocateERS0_Pim(%"class.std::allocator"* dereferenceable(1) %12, i32* %13, i64 %14)
  br label %15

15:                                               ; preds = %10, %3
  ret void
}

; Function Attrs: noinline nounwind optnone uwtable
define linkonce_odr dso_local void @_ZNSt12_Vector_baseIiSaIiEE12_Vector_implD2Ev(%"struct.std::_Vector_base<int, std::allocator<int> >::_Vector_impl"* %0) unnamed_addr #6 comdat align 2 {
  %2 = alloca %"struct.std::_Vector_base<int, std::allocator<int> >::_Vector_impl"*, align 8
  store %"struct.std::_Vector_base<int, std::allocator<int> >::_Vector_impl"* %0, %"struct.std::_Vector_base<int, std::allocator<int> >::_Vector_impl"** %2, align 8
  %3 = load %"struct.std::_Vector_base<int, std::allocator<int> >::_Vector_impl"*, %"struct.std::_Vector_base<int, std::allocator<int> >::_Vector_impl"** %2, align 8
  %4 = bitcast %"struct.std::_Vector_base<int, std::allocator<int> >::_Vector_impl"* %3 to %"class.std::allocator"*
  call void @_ZNSaIiED2Ev(%"class.std::allocator"* %4) #3
  ret void
}

; Function Attrs: noinline optnone uwtable
define linkonce_odr dso_local void @_ZNSt16allocator_traitsISaIiEE10deallocateERS0_Pim(%"class.std::allocator"* dereferenceable(1) %0, i32* %1, i64 %2) #7 comdat align 2 {
  %4 = alloca %"class.std::allocator"*, align 8
  %5 = alloca i32*, align 8
  %6 = alloca i64, align 8
  store %"class.std::allocator"* %0, %"class.std::allocator"** %4, align 8
  store i32* %1, i32** %5, align 8
  store i64 %2, i64* %6, align 8
  %7 = load %"class.std::allocator"*, %"class.std::allocator"** %4, align 8
  %8 = bitcast %"class.std::allocator"* %7 to %"class.__gnu_cxx::new_allocator"*
  %9 = load i32*, i32** %5, align 8
  %10 = load i64, i64* %6, align 8
  call void @_ZN9__gnu_cxx13new_allocatorIiE10deallocateEPim(%"class.__gnu_cxx::new_allocator"* %8, i32* %9, i64 %10)
  ret void
}

; Function Attrs: noinline nounwind optnone uwtable
define linkonce_odr dso_local void @_ZN9__gnu_cxx13new_allocatorIiE10deallocateEPim(%"class.__gnu_cxx::new_allocator"* %0, i32* %1, i64 %2) #6 comdat align 2 {
  %4 = alloca %"class.__gnu_cxx::new_allocator"*, align 8
  %5 = alloca i32*, align 8
  %6 = alloca i64, align 8
  store %"class.__gnu_cxx::new_allocator"* %0, %"class.__gnu_cxx::new_allocator"** %4, align 8
  store i32* %1, i32** %5, align 8
  store i64 %2, i64* %6, align 8
  %7 = load %"class.__gnu_cxx::new_allocator"*, %"class.__gnu_cxx::new_allocator"** %4, align 8
  %8 = load i32*, i32** %5, align 8
  %9 = bitcast i32* %8 to i8*
  call void @_ZdlPv(i8* %9) #3
  ret void
}

; Function Attrs: nobuiltin nounwind
declare dso_local void @_ZdlPv(i8*) #11

; Function Attrs: noinline optnone uwtable
define linkonce_odr dso_local void @_ZSt8_DestroyIPiiEvT_S1_RSaIT0_E(i32* %0, i32* %1, %"class.std::allocator"* dereferenceable(1) %2) #7 comdat {
  %4 = alloca i32*, align 8
  %5 = alloca i32*, align 8
  %6 = alloca %"class.std::allocator"*, align 8
  store i32* %0, i32** %4, align 8
  store i32* %1, i32** %5, align 8
  store %"class.std::allocator"* %2, %"class.std::allocator"** %6, align 8
  %7 = load i32*, i32** %4, align 8
  %8 = load i32*, i32** %5, align 8
  call void @_ZSt8_DestroyIPiEvT_S1_(i32* %7, i32* %8)
  ret void
}

; Function Attrs: noinline optnone uwtable
define linkonce_odr dso_local void @_ZSt8_DestroyIPiEvT_S1_(i32* %0, i32* %1) #7 comdat {
  %3 = alloca i32*, align 8
  %4 = alloca i32*, align 8
  store i32* %0, i32** %3, align 8
  store i32* %1, i32** %4, align 8
  %5 = load i32*, i32** %3, align 8
  %6 = load i32*, i32** %4, align 8
  call void @_ZNSt12_Destroy_auxILb1EE9__destroyIPiEEvT_S3_(i32* %5, i32* %6)
  ret void
}

; Function Attrs: noinline nounwind optnone uwtable
define linkonce_odr dso_local void @_ZNSt12_Destroy_auxILb1EE9__destroyIPiEEvT_S3_(i32* %0, i32* %1) #6 comdat align 2 {
  %3 = alloca i32*, align 8
  %4 = alloca i32*, align 8
  store i32* %0, i32** %3, align 8
  store i32* %1, i32** %4, align 8
  ret void
}

; Function Attrs: noinline optnone uwtable
define linkonce_odr dso_local void @_ZNSt12_Vector_baseIiSaIiEEC2EmRKS0_(%"struct.std::_Vector_base"* %0, i64 %1, %"class.std::allocator"* dereferenceable(1) %2) unnamed_addr #7 comdat align 2 personality i8* bitcast (i32 (...)* @__gxx_personality_v0 to i8*) {
  %4 = alloca %"struct.std::_Vector_base"*, align 8
  %5 = alloca i64, align 8
  %6 = alloca %"class.std::allocator"*, align 8
  %7 = alloca i8*
  %8 = alloca i32
  store %"struct.std::_Vector_base"* %0, %"struct.std::_Vector_base"** %4, align 8
  store i64 %1, i64* %5, align 8
  store %"class.std::allocator"* %2, %"class.std::allocator"** %6, align 8
  %9 = load %"struct.std::_Vector_base"*, %"struct.std::_Vector_base"** %4, align 8
  %10 = getelementptr inbounds %"struct.std::_Vector_base", %"struct.std::_Vector_base"* %9, i32 0, i32 0
  %11 = load %"class.std::allocator"*, %"class.std::allocator"** %6, align 8
  call void @_ZNSt12_Vector_baseIiSaIiEE12_Vector_implC2ERKS0_(%"struct.std::_Vector_base<int, std::allocator<int> >::_Vector_impl"* %10, %"class.std::allocator"* dereferenceable(1) %11) #3
  %12 = load i64, i64* %5, align 8
  invoke void @_ZNSt12_Vector_baseIiSaIiEE17_M_create_storageEm(%"struct.std::_Vector_base"* %9, i64 %12)
          to label %13 unwind label %14

13:                                               ; preds = %3
  ret void

14:                                               ; preds = %3
  %15 = landingpad { i8*, i32 }
          cleanup
  %16 = extractvalue { i8*, i32 } %15, 0
  store i8* %16, i8** %7, align 8
  %17 = extractvalue { i8*, i32 } %15, 1
  store i32 %17, i32* %8, align 4
  call void @_ZNSt12_Vector_baseIiSaIiEE12_Vector_implD2Ev(%"struct.std::_Vector_base<int, std::allocator<int> >::_Vector_impl"* %10) #3
  br label %18

18:                                               ; preds = %14
  %19 = load i8*, i8** %7, align 8
  %20 = load i32, i32* %8, align 4
  %21 = insertvalue { i8*, i32 } undef, i8* %19, 0
  %22 = insertvalue { i8*, i32 } %21, i32 %20, 1
  resume { i8*, i32 } %22
}

; Function Attrs: noinline optnone uwtable
define linkonce_odr dso_local void @_ZNSt6vectorIiSaIiEE21_M_default_initializeEm(%"class.std::vector"* %0, i64 %1) #7 comdat align 2 {
  %3 = alloca %"class.std::vector"*, align 8
  %4 = alloca i64, align 8
  store %"class.std::vector"* %0, %"class.std::vector"** %3, align 8
  store i64 %1, i64* %4, align 8
  %5 = load %"class.std::vector"*, %"class.std::vector"** %3, align 8
  %6 = bitcast %"class.std::vector"* %5 to %"struct.std::_Vector_base"*
  %7 = getelementptr inbounds %"struct.std::_Vector_base", %"struct.std::_Vector_base"* %6, i32 0, i32 0
  %8 = bitcast %"struct.std::_Vector_base<int, std::allocator<int> >::_Vector_impl"* %7 to %"struct.std::_Vector_base<int, std::allocator<int> >::_Vector_impl_data"*
  %9 = getelementptr inbounds %"struct.std::_Vector_base<int, std::allocator<int> >::_Vector_impl_data", %"struct.std::_Vector_base<int, std::allocator<int> >::_Vector_impl_data"* %8, i32 0, i32 0
  %10 = load i32*, i32** %9, align 8
  %11 = load i64, i64* %4, align 8
  %12 = bitcast %"class.std::vector"* %5 to %"struct.std::_Vector_base"*
  %13 = call dereferenceable(1) %"class.std::allocator"* @_ZNSt12_Vector_baseIiSaIiEE19_M_get_Tp_allocatorEv(%"struct.std::_Vector_base"* %12) #3
  %14 = call i32* @_ZSt27__uninitialized_default_n_aIPimiET_S1_T0_RSaIT1_E(i32* %10, i64 %11, %"class.std::allocator"* dereferenceable(1) %13)
  %15 = bitcast %"class.std::vector"* %5 to %"struct.std::_Vector_base"*
  %16 = getelementptr inbounds %"struct.std::_Vector_base", %"struct.std::_Vector_base"* %15, i32 0, i32 0
  %17 = bitcast %"struct.std::_Vector_base<int, std::allocator<int> >::_Vector_impl"* %16 to %"struct.std::_Vector_base<int, std::allocator<int> >::_Vector_impl_data"*
  %18 = getelementptr inbounds %"struct.std::_Vector_base<int, std::allocator<int> >::_Vector_impl_data", %"struct.std::_Vector_base<int, std::allocator<int> >::_Vector_impl_data"* %17, i32 0, i32 1
  store i32* %14, i32** %18, align 8
  ret void
}

; Function Attrs: noinline optnone uwtable
define linkonce_odr dso_local void @_ZNSt12_Vector_baseIiSaIiEE17_M_create_storageEm(%"struct.std::_Vector_base"* %0, i64 %1) #7 comdat align 2 {
  %3 = alloca %"struct.std::_Vector_base"*, align 8
  %4 = alloca i64, align 8
  store %"struct.std::_Vector_base"* %0, %"struct.std::_Vector_base"** %3, align 8
  store i64 %1, i64* %4, align 8
  %5 = load %"struct.std::_Vector_base"*, %"struct.std::_Vector_base"** %3, align 8
  %6 = load i64, i64* %4, align 8
  %7 = call i32* @_ZNSt12_Vector_baseIiSaIiEE11_M_allocateEm(%"struct.std::_Vector_base"* %5, i64 %6)
  %8 = getelementptr inbounds %"struct.std::_Vector_base", %"struct.std::_Vector_base"* %5, i32 0, i32 0
  %9 = bitcast %"struct.std::_Vector_base<int, std::allocator<int> >::_Vector_impl"* %8 to %"struct.std::_Vector_base<int, std::allocator<int> >::_Vector_impl_data"*
  %10 = getelementptr inbounds %"struct.std::_Vector_base<int, std::allocator<int> >::_Vector_impl_data", %"struct.std::_Vector_base<int, std::allocator<int> >::_Vector_impl_data"* %9, i32 0, i32 0
  store i32* %7, i32** %10, align 8
  %11 = getelementptr inbounds %"struct.std::_Vector_base", %"struct.std::_Vector_base"* %5, i32 0, i32 0
  %12 = bitcast %"struct.std::_Vector_base<int, std::allocator<int> >::_Vector_impl"* %11 to %"struct.std::_Vector_base<int, std::allocator<int> >::_Vector_impl_data"*
  %13 = getelementptr inbounds %"struct.std::_Vector_base<int, std::allocator<int> >::_Vector_impl_data", %"struct.std::_Vector_base<int, std::allocator<int> >::_Vector_impl_data"* %12, i32 0, i32 0
  %14 = load i32*, i32** %13, align 8
  %15 = getelementptr inbounds %"struct.std::_Vector_base", %"struct.std::_Vector_base"* %5, i32 0, i32 0
  %16 = bitcast %"struct.std::_Vector_base<int, std::allocator<int> >::_Vector_impl"* %15 to %"struct.std::_Vector_base<int, std::allocator<int> >::_Vector_impl_data"*
  %17 = getelementptr inbounds %"struct.std::_Vector_base<int, std::allocator<int> >::_Vector_impl_data", %"struct.std::_Vector_base<int, std::allocator<int> >::_Vector_impl_data"* %16, i32 0, i32 1
  store i32* %14, i32** %17, align 8
  %18 = getelementptr inbounds %"struct.std::_Vector_base", %"struct.std::_Vector_base"* %5, i32 0, i32 0
  %19 = bitcast %"struct.std::_Vector_base<int, std::allocator<int> >::_Vector_impl"* %18 to %"struct.std::_Vector_base<int, std::allocator<int> >::_Vector_impl_data"*
  %20 = getelementptr inbounds %"struct.std::_Vector_base<int, std::allocator<int> >::_Vector_impl_data", %"struct.std::_Vector_base<int, std::allocator<int> >::_Vector_impl_data"* %19, i32 0, i32 0
  %21 = load i32*, i32** %20, align 8
  %22 = load i64, i64* %4, align 8
  %23 = getelementptr inbounds i32, i32* %21, i64 %22
  %24 = getelementptr inbounds %"struct.std::_Vector_base", %"struct.std::_Vector_base"* %5, i32 0, i32 0
  %25 = bitcast %"struct.std::_Vector_base<int, std::allocator<int> >::_Vector_impl"* %24 to %"struct.std::_Vector_base<int, std::allocator<int> >::_Vector_impl_data"*
  %26 = getelementptr inbounds %"struct.std::_Vector_base<int, std::allocator<int> >::_Vector_impl_data", %"struct.std::_Vector_base<int, std::allocator<int> >::_Vector_impl_data"* %25, i32 0, i32 2
  store i32* %23, i32** %26, align 8
  ret void
}

; Function Attrs: noinline optnone uwtable
define linkonce_odr dso_local i32* @_ZSt27__uninitialized_default_n_aIPimiET_S1_T0_RSaIT1_E(i32* %0, i64 %1, %"class.std::allocator"* dereferenceable(1) %2) #7 comdat {
  %4 = alloca i32*, align 8
  %5 = alloca i64, align 8
  %6 = alloca %"class.std::allocator"*, align 8
  store i32* %0, i32** %4, align 8
  store i64 %1, i64* %5, align 8
  store %"class.std::allocator"* %2, %"class.std::allocator"** %6, align 8
  %7 = load i32*, i32** %4, align 8
  %8 = load i64, i64* %5, align 8
  %9 = call i32* @_ZSt25__uninitialized_default_nIPimET_S1_T0_(i32* %7, i64 %8)
  ret i32* %9
}

; Function Attrs: noinline optnone uwtable
define linkonce_odr dso_local i32* @_ZSt25__uninitialized_default_nIPimET_S1_T0_(i32* %0, i64 %1) #7 comdat {
  %3 = alloca i32*, align 8
  %4 = alloca i64, align 8
  %5 = alloca i8, align 1
  store i32* %0, i32** %3, align 8
  store i64 %1, i64* %4, align 8
  store i8 1, i8* %5, align 1
  %6 = load i32*, i32** %3, align 8
  %7 = load i64, i64* %4, align 8
  %8 = call i32* @_ZNSt27__uninitialized_default_n_1ILb1EE18__uninit_default_nIPimEET_S3_T0_(i32* %6, i64 %7)
  ret i32* %8
}

; Function Attrs: noinline optnone uwtable
define linkonce_odr dso_local i32* @_ZNSt27__uninitialized_default_n_1ILb1EE18__uninit_default_nIPimEET_S3_T0_(i32* %0, i64 %1) #7 comdat align 2 {
  %3 = alloca i32*, align 8
  %4 = alloca i64, align 8
  %5 = alloca i32, align 4
  store i32* %0, i32** %3, align 8
  store i64 %1, i64* %4, align 8
  %6 = load i32*, i32** %3, align 8
  %7 = load i64, i64* %4, align 8
  store i32 0, i32* %5, align 4
  %8 = call i32* @_ZSt6fill_nIPimiET_S1_T0_RKT1_(i32* %6, i64 %7, i32* dereferenceable(4) %5)
  ret i32* %8
}

; Function Attrs: noinline optnone uwtable
define linkonce_odr dso_local i32* @_ZSt6fill_nIPimiET_S1_T0_RKT1_(i32* %0, i64 %1, i32* dereferenceable(4) %2) #7 comdat {
  %4 = alloca i32*, align 8
  %5 = alloca i64, align 8
  %6 = alloca i32*, align 8
  store i32* %0, i32** %4, align 8
  store i64 %1, i64* %5, align 8
  store i32* %2, i32** %6, align 8
  %7 = load i32*, i32** %4, align 8
  %8 = call i32* @_ZSt12__niter_baseIPiET_S1_(i32* %7) #3
  %9 = load i64, i64* %5, align 8
  %10 = load i32*, i32** %6, align 8
  %11 = call i32* @_ZSt10__fill_n_aIPimiEN9__gnu_cxx11__enable_ifIXsr11__is_scalarIT1_EE7__valueET_E6__typeES4_T0_RKS3_(i32* %8, i64 %9, i32* dereferenceable(4) %10)
  %12 = call i32* @_ZSt12__niter_wrapIPiET_RKS1_S1_(i32** dereferenceable(8) %4, i32* %11)
  ret i32* %12
}

; Function Attrs: noinline nounwind optnone uwtable
define linkonce_odr dso_local i32* @_ZSt10__fill_n_aIPimiEN9__gnu_cxx11__enable_ifIXsr11__is_scalarIT1_EE7__valueET_E6__typeES4_T0_RKS3_(i32* %0, i64 %1, i32* dereferenceable(4) %2) #6 comdat {
  %4 = alloca i32*, align 8
  %5 = alloca i64, align 8
  %6 = alloca i32*, align 8
  %7 = alloca i32, align 4
  %8 = alloca i64, align 8
  store i32* %0, i32** %4, align 8
  store i64 %1, i64* %5, align 8
  store i32* %2, i32** %6, align 8
  %9 = load i32*, i32** %6, align 8
  %10 = load i32, i32* %9, align 4
  store i32 %10, i32* %7, align 4
  %11 = load i64, i64* %5, align 8
  store i64 %11, i64* %8, align 8
  br label %12

12:                                               ; preds = %18, %3
  %13 = load i64, i64* %8, align 8
  %14 = icmp ugt i64 %13, 0
  br i1 %14, label %15, label %23

15:                                               ; preds = %12
  %16 = load i32, i32* %7, align 4
  %17 = load i32*, i32** %4, align 8
  store i32 %16, i32* %17, align 4
  br label %18

18:                                               ; preds = %15
  %19 = load i64, i64* %8, align 8
  %20 = add i64 %19, -1
  store i64 %20, i64* %8, align 8
  %21 = load i32*, i32** %4, align 8
  %22 = getelementptr inbounds i32, i32* %21, i32 1
  store i32* %22, i32** %4, align 8
  br label %12

23:                                               ; preds = %12
  %24 = load i32*, i32** %4, align 8
  ret i32* %24
}

; Function Attrs: noinline nounwind optnone uwtable
define linkonce_odr dso_local void @_ZNSt16allocator_traitsISaIiEE9constructIiJRKiEEEvRS0_PT_DpOT0_(%"class.std::allocator"* dereferenceable(1) %0, i32* %1, i32* dereferenceable(4) %2) #6 comdat align 2 {
  %4 = alloca %"class.std::allocator"*, align 8
  %5 = alloca i32*, align 8
  %6 = alloca i32*, align 8
  store %"class.std::allocator"* %0, %"class.std::allocator"** %4, align 8
  store i32* %1, i32** %5, align 8
  store i32* %2, i32** %6, align 8
  %7 = load %"class.std::allocator"*, %"class.std::allocator"** %4, align 8
  %8 = bitcast %"class.std::allocator"* %7 to %"class.__gnu_cxx::new_allocator"*
  %9 = load i32*, i32** %5, align 8
  %10 = load i32*, i32** %6, align 8
  %11 = call dereferenceable(4) i32* @_ZSt7forwardIRKiEOT_RNSt16remove_referenceIS2_E4typeE(i32* dereferenceable(4) %10) #3
  call void @_ZN9__gnu_cxx13new_allocatorIiE9constructIiJRKiEEEvPT_DpOT0_(%"class.__gnu_cxx::new_allocator"* %8, i32* %9, i32* dereferenceable(4) %11) #3
  ret void
}

; Function Attrs: noinline optnone uwtable
define linkonce_odr dso_local void @_ZNSt6vectorIiSaIiEE17_M_realloc_insertIJRKiEEEvN9__gnu_cxx17__normal_iteratorIPiS1_EEDpOT_(%"class.std::vector"* %0, i32* %1, i32* dereferenceable(4) %2) #7 comdat align 2 {
  %4 = alloca %"class.__gnu_cxx::__normal_iterator", align 8
  %5 = alloca %"class.std::vector"*, align 8
  %6 = alloca i32*, align 8
  %7 = alloca i64, align 8
  %8 = alloca i32*, align 8
  %9 = alloca i32*, align 8
  %10 = alloca i64, align 8
  %11 = alloca %"class.__gnu_cxx::__normal_iterator", align 8
  %12 = alloca i32*, align 8
  %13 = alloca i32*, align 8
  %14 = getelementptr inbounds %"class.__gnu_cxx::__normal_iterator", %"class.__gnu_cxx::__normal_iterator"* %4, i32 0, i32 0
  store i32* %1, i32** %14, align 8
  store %"class.std::vector"* %0, %"class.std::vector"** %5, align 8
  store i32* %2, i32** %6, align 8
  %15 = load %"class.std::vector"*, %"class.std::vector"** %5, align 8
  %16 = call i64 @_ZNKSt6vectorIiSaIiEE12_M_check_lenEmPKc(%"class.std::vector"* %15, i64 1, i8* getelementptr inbounds ([26 x i8], [26 x i8]* @.str.2, i64 0, i64 0))
  store i64 %16, i64* %7, align 8
  %17 = bitcast %"class.std::vector"* %15 to %"struct.std::_Vector_base"*
  %18 = getelementptr inbounds %"struct.std::_Vector_base", %"struct.std::_Vector_base"* %17, i32 0, i32 0
  %19 = bitcast %"struct.std::_Vector_base<int, std::allocator<int> >::_Vector_impl"* %18 to %"struct.std::_Vector_base<int, std::allocator<int> >::_Vector_impl_data"*
  %20 = getelementptr inbounds %"struct.std::_Vector_base<int, std::allocator<int> >::_Vector_impl_data", %"struct.std::_Vector_base<int, std::allocator<int> >::_Vector_impl_data"* %19, i32 0, i32 0
  %21 = load i32*, i32** %20, align 8
  store i32* %21, i32** %8, align 8
  %22 = bitcast %"class.std::vector"* %15 to %"struct.std::_Vector_base"*
  %23 = getelementptr inbounds %"struct.std::_Vector_base", %"struct.std::_Vector_base"* %22, i32 0, i32 0
  %24 = bitcast %"struct.std::_Vector_base<int, std::allocator<int> >::_Vector_impl"* %23 to %"struct.std::_Vector_base<int, std::allocator<int> >::_Vector_impl_data"*
  %25 = getelementptr inbounds %"struct.std::_Vector_base<int, std::allocator<int> >::_Vector_impl_data", %"struct.std::_Vector_base<int, std::allocator<int> >::_Vector_impl_data"* %24, i32 0, i32 1
  %26 = load i32*, i32** %25, align 8
  store i32* %26, i32** %9, align 8
  %27 = call i32* @_ZNSt6vectorIiSaIiEE5beginEv(%"class.std::vector"* %15) #3
  %28 = getelementptr inbounds %"class.__gnu_cxx::__normal_iterator", %"class.__gnu_cxx::__normal_iterator"* %11, i32 0, i32 0
  store i32* %27, i32** %28, align 8
  %29 = call i64 @_ZN9__gnu_cxxmiIPiSt6vectorIiSaIiEEEENS_17__normal_iteratorIT_T0_E15difference_typeERKS8_SB_(%"class.__gnu_cxx::__normal_iterator"* dereferenceable(8) %4, %"class.__gnu_cxx::__normal_iterator"* dereferenceable(8) %11) #3
  store i64 %29, i64* %10, align 8
  %30 = bitcast %"class.std::vector"* %15 to %"struct.std::_Vector_base"*
  %31 = load i64, i64* %7, align 8
  %32 = call i32* @_ZNSt12_Vector_baseIiSaIiEE11_M_allocateEm(%"struct.std::_Vector_base"* %30, i64 %31)
  store i32* %32, i32** %12, align 8
  %33 = load i32*, i32** %12, align 8
  store i32* %33, i32** %13, align 8
  %34 = bitcast %"class.std::vector"* %15 to %"struct.std::_Vector_base"*
  %35 = getelementptr inbounds %"struct.std::_Vector_base", %"struct.std::_Vector_base"* %34, i32 0, i32 0
  %36 = bitcast %"struct.std::_Vector_base<int, std::allocator<int> >::_Vector_impl"* %35 to %"class.std::allocator"*
  %37 = load i32*, i32** %12, align 8
  %38 = load i64, i64* %10, align 8
  %39 = getelementptr inbounds i32, i32* %37, i64 %38
  %40 = load i32*, i32** %6, align 8
  %41 = call dereferenceable(4) i32* @_ZSt7forwardIRKiEOT_RNSt16remove_referenceIS2_E4typeE(i32* dereferenceable(4) %40) #3
  call void @_ZNSt16allocator_traitsISaIiEE9constructIiJRKiEEEvRS0_PT_DpOT0_(%"class.std::allocator"* dereferenceable(1) %36, i32* %39, i32* dereferenceable(4) %41) #3
  store i32* null, i32** %13, align 8
  %42 = load i32*, i32** %8, align 8
  %43 = call dereferenceable(8) i32** @_ZNK9__gnu_cxx17__normal_iteratorIPiSt6vectorIiSaIiEEE4baseEv(%"class.__gnu_cxx::__normal_iterator"* %4) #3
  %44 = load i32*, i32** %43, align 8
  %45 = load i32*, i32** %12, align 8
  %46 = bitcast %"class.std::vector"* %15 to %"struct.std::_Vector_base"*
  %47 = call dereferenceable(1) %"class.std::allocator"* @_ZNSt12_Vector_baseIiSaIiEE19_M_get_Tp_allocatorEv(%"struct.std::_Vector_base"* %46) #3
  %48 = call i32* @_ZNSt6vectorIiSaIiEE11_S_relocateEPiS2_S2_RS0_(i32* %42, i32* %44, i32* %45, %"class.std::allocator"* dereferenceable(1) %47) #3
  store i32* %48, i32** %13, align 8
  %49 = load i32*, i32** %13, align 8
  %50 = getelementptr inbounds i32, i32* %49, i32 1
  store i32* %50, i32** %13, align 8
  %51 = call dereferenceable(8) i32** @_ZNK9__gnu_cxx17__normal_iteratorIPiSt6vectorIiSaIiEEE4baseEv(%"class.__gnu_cxx::__normal_iterator"* %4) #3
  %52 = load i32*, i32** %51, align 8
  %53 = load i32*, i32** %9, align 8
  %54 = load i32*, i32** %13, align 8
  %55 = bitcast %"class.std::vector"* %15 to %"struct.std::_Vector_base"*
  %56 = call dereferenceable(1) %"class.std::allocator"* @_ZNSt12_Vector_baseIiSaIiEE19_M_get_Tp_allocatorEv(%"struct.std::_Vector_base"* %55) #3
  %57 = call i32* @_ZNSt6vectorIiSaIiEE11_S_relocateEPiS2_S2_RS0_(i32* %52, i32* %53, i32* %54, %"class.std::allocator"* dereferenceable(1) %56) #3
  store i32* %57, i32** %13, align 8
  %58 = bitcast %"class.std::vector"* %15 to %"struct.std::_Vector_base"*
  %59 = load i32*, i32** %8, align 8
  %60 = bitcast %"class.std::vector"* %15 to %"struct.std::_Vector_base"*
  %61 = getelementptr inbounds %"struct.std::_Vector_base", %"struct.std::_Vector_base"* %60, i32 0, i32 0
  %62 = bitcast %"struct.std::_Vector_base<int, std::allocator<int> >::_Vector_impl"* %61 to %"struct.std::_Vector_base<int, std::allocator<int> >::_Vector_impl_data"*
  %63 = getelementptr inbounds %"struct.std::_Vector_base<int, std::allocator<int> >::_Vector_impl_data", %"struct.std::_Vector_base<int, std::allocator<int> >::_Vector_impl_data"* %62, i32 0, i32 2
  %64 = load i32*, i32** %63, align 8
  %65 = load i32*, i32** %8, align 8
  %66 = ptrtoint i32* %64 to i64
  %67 = ptrtoint i32* %65 to i64
  %68 = sub i64 %66, %67
  %69 = sdiv exact i64 %68, 4
  call void @_ZNSt12_Vector_baseIiSaIiEE13_M_deallocateEPim(%"struct.std::_Vector_base"* %58, i32* %59, i64 %69)
  %70 = load i32*, i32** %12, align 8
  %71 = bitcast %"class.std::vector"* %15 to %"struct.std::_Vector_base"*
  %72 = getelementptr inbounds %"struct.std::_Vector_base", %"struct.std::_Vector_base"* %71, i32 0, i32 0
  %73 = bitcast %"struct.std::_Vector_base<int, std::allocator<int> >::_Vector_impl"* %72 to %"struct.std::_Vector_base<int, std::allocator<int> >::_Vector_impl_data"*
  %74 = getelementptr inbounds %"struct.std::_Vector_base<int, std::allocator<int> >::_Vector_impl_data", %"struct.std::_Vector_base<int, std::allocator<int> >::_Vector_impl_data"* %73, i32 0, i32 0
  store i32* %70, i32** %74, align 8
  %75 = load i32*, i32** %13, align 8
  %76 = bitcast %"class.std::vector"* %15 to %"struct.std::_Vector_base"*
  %77 = getelementptr inbounds %"struct.std::_Vector_base", %"struct.std::_Vector_base"* %76, i32 0, i32 0
  %78 = bitcast %"struct.std::_Vector_base<int, std::allocator<int> >::_Vector_impl"* %77 to %"struct.std::_Vector_base<int, std::allocator<int> >::_Vector_impl_data"*
  %79 = getelementptr inbounds %"struct.std::_Vector_base<int, std::allocator<int> >::_Vector_impl_data", %"struct.std::_Vector_base<int, std::allocator<int> >::_Vector_impl_data"* %78, i32 0, i32 1
  store i32* %75, i32** %79, align 8
  %80 = load i32*, i32** %12, align 8
  %81 = load i64, i64* %7, align 8
  %82 = getelementptr inbounds i32, i32* %80, i64 %81
  %83 = bitcast %"class.std::vector"* %15 to %"struct.std::_Vector_base"*
  %84 = getelementptr inbounds %"struct.std::_Vector_base", %"struct.std::_Vector_base"* %83, i32 0, i32 0
  %85 = bitcast %"struct.std::_Vector_base<int, std::allocator<int> >::_Vector_impl"* %84 to %"struct.std::_Vector_base<int, std::allocator<int> >::_Vector_impl_data"*
  %86 = getelementptr inbounds %"struct.std::_Vector_base<int, std::allocator<int> >::_Vector_impl_data", %"struct.std::_Vector_base<int, std::allocator<int> >::_Vector_impl_data"* %85, i32 0, i32 2
  store i32* %82, i32** %86, align 8
  ret void
}

; Function Attrs: noinline nounwind optnone uwtable
define linkonce_odr dso_local void @_ZN9__gnu_cxx13new_allocatorIiE9constructIiJRKiEEEvPT_DpOT0_(%"class.__gnu_cxx::new_allocator"* %0, i32* %1, i32* dereferenceable(4) %2) #6 comdat align 2 {
  %4 = alloca %"class.__gnu_cxx::new_allocator"*, align 8
  %5 = alloca i32*, align 8
  %6 = alloca i32*, align 8
  store %"class.__gnu_cxx::new_allocator"* %0, %"class.__gnu_cxx::new_allocator"** %4, align 8
  store i32* %1, i32** %5, align 8
  store i32* %2, i32** %6, align 8
  %7 = load %"class.__gnu_cxx::new_allocator"*, %"class.__gnu_cxx::new_allocator"** %4, align 8
  %8 = load i32*, i32** %5, align 8
  %9 = bitcast i32* %8 to i8*
  %10 = bitcast i8* %9 to i32*
  %11 = load i32*, i32** %6, align 8
  %12 = call dereferenceable(4) i32* @_ZSt7forwardIRKiEOT_RNSt16remove_referenceIS2_E4typeE(i32* dereferenceable(4) %11) #3
  %13 = load i32, i32* %12, align 4
  store i32 %13, i32* %10, align 4
  ret void
}

; Function Attrs: noinline nounwind optnone uwtable
define linkonce_odr dso_local dereferenceable(4) i32* @_ZSt7forwardIRKiEOT_RNSt16remove_referenceIS2_E4typeE(i32* dereferenceable(4) %0) #6 comdat {
  %2 = alloca i32*, align 8
  store i32* %0, i32** %2, align 8
  %3 = load i32*, i32** %2, align 8
  ret i32* %3
}

; Function Attrs: noinline optnone uwtable
define linkonce_odr dso_local i64 @_ZNKSt6vectorIiSaIiEE12_M_check_lenEmPKc(%"class.std::vector"* %0, i64 %1, i8* %2) #7 comdat align 2 {
  %4 = alloca %"class.std::vector"*, align 8
  %5 = alloca i64, align 8
  %6 = alloca i8*, align 8
  %7 = alloca i64, align 8
  %8 = alloca i64, align 8
  store %"class.std::vector"* %0, %"class.std::vector"** %4, align 8
  store i64 %1, i64* %5, align 8
  store i8* %2, i8** %6, align 8
  %9 = load %"class.std::vector"*, %"class.std::vector"** %4, align 8
  %10 = call i64 @_ZNKSt6vectorIiSaIiEE8max_sizeEv(%"class.std::vector"* %9) #3
  %11 = call i64 @_ZNKSt6vectorIiSaIiEE4sizeEv(%"class.std::vector"* %9) #3
  %12 = sub i64 %10, %11
  %13 = load i64, i64* %5, align 8
  %14 = icmp ult i64 %12, %13
  br i1 %14, label %15, label %17

15:                                               ; preds = %3
  %16 = load i8*, i8** %6, align 8
  call void @_ZSt20__throw_length_errorPKc(i8* %16) #13
  unreachable

17:                                               ; preds = %3
  %18 = call i64 @_ZNKSt6vectorIiSaIiEE4sizeEv(%"class.std::vector"* %9) #3
  %19 = call i64 @_ZNKSt6vectorIiSaIiEE4sizeEv(%"class.std::vector"* %9) #3
  store i64 %19, i64* %8, align 8
  %20 = call dereferenceable(8) i64* @_ZSt3maxImERKT_S2_S2_(i64* dereferenceable(8) %8, i64* dereferenceable(8) %5)
  %21 = load i64, i64* %20, align 8
  %22 = add i64 %18, %21
  store i64 %22, i64* %7, align 8
  %23 = load i64, i64* %7, align 8
  %24 = call i64 @_ZNKSt6vectorIiSaIiEE4sizeEv(%"class.std::vector"* %9) #3
  %25 = icmp ult i64 %23, %24
  br i1 %25, label %30, label %26

26:                                               ; preds = %17
  %27 = load i64, i64* %7, align 8
  %28 = call i64 @_ZNKSt6vectorIiSaIiEE8max_sizeEv(%"class.std::vector"* %9) #3
  %29 = icmp ugt i64 %27, %28
  br i1 %29, label %30, label %32

30:                                               ; preds = %26, %17
  %31 = call i64 @_ZNKSt6vectorIiSaIiEE8max_sizeEv(%"class.std::vector"* %9) #3
  br label %34

32:                                               ; preds = %26
  %33 = load i64, i64* %7, align 8
  br label %34

34:                                               ; preds = %32, %30
  %35 = phi i64 [ %31, %30 ], [ %33, %32 ]
  ret i64 %35
}

; Function Attrs: noinline nounwind optnone uwtable
define linkonce_odr dso_local i64 @_ZN9__gnu_cxxmiIPiSt6vectorIiSaIiEEEENS_17__normal_iteratorIT_T0_E15difference_typeERKS8_SB_(%"class.__gnu_cxx::__normal_iterator"* dereferenceable(8) %0, %"class.__gnu_cxx::__normal_iterator"* dereferenceable(8) %1) #6 comdat {
  %3 = alloca %"class.__gnu_cxx::__normal_iterator"*, align 8
  %4 = alloca %"class.__gnu_cxx::__normal_iterator"*, align 8
  store %"class.__gnu_cxx::__normal_iterator"* %0, %"class.__gnu_cxx::__normal_iterator"** %3, align 8
  store %"class.__gnu_cxx::__normal_iterator"* %1, %"class.__gnu_cxx::__normal_iterator"** %4, align 8
  %5 = load %"class.__gnu_cxx::__normal_iterator"*, %"class.__gnu_cxx::__normal_iterator"** %3, align 8
  %6 = call dereferenceable(8) i32** @_ZNK9__gnu_cxx17__normal_iteratorIPiSt6vectorIiSaIiEEE4baseEv(%"class.__gnu_cxx::__normal_iterator"* %5) #3
  %7 = load i32*, i32** %6, align 8
  %8 = load %"class.__gnu_cxx::__normal_iterator"*, %"class.__gnu_cxx::__normal_iterator"** %4, align 8
  %9 = call dereferenceable(8) i32** @_ZNK9__gnu_cxx17__normal_iteratorIPiSt6vectorIiSaIiEEE4baseEv(%"class.__gnu_cxx::__normal_iterator"* %8) #3
  %10 = load i32*, i32** %9, align 8
  %11 = ptrtoint i32* %7 to i64
  %12 = ptrtoint i32* %10 to i64
  %13 = sub i64 %11, %12
  %14 = sdiv exact i64 %13, 4
  ret i64 %14
}

; Function Attrs: noinline nounwind optnone uwtable
define linkonce_odr dso_local i32* @_ZNSt6vectorIiSaIiEE11_S_relocateEPiS2_S2_RS0_(i32* %0, i32* %1, i32* %2, %"class.std::allocator"* dereferenceable(1) %3) #6 comdat align 2 {
  %5 = alloca i32*, align 8
  %6 = alloca i32*, align 8
  %7 = alloca i32*, align 8
  %8 = alloca %"class.std::allocator"*, align 8
  %9 = alloca %"struct.std::integral_constant", align 1
  store i32* %0, i32** %5, align 8
  store i32* %1, i32** %6, align 8
  store i32* %2, i32** %7, align 8
  store %"class.std::allocator"* %3, %"class.std::allocator"** %8, align 8
  %10 = load i32*, i32** %5, align 8
  %11 = load i32*, i32** %6, align 8
  %12 = load i32*, i32** %7, align 8
  %13 = load %"class.std::allocator"*, %"class.std::allocator"** %8, align 8
  %14 = call i32* @_ZNSt6vectorIiSaIiEE14_S_do_relocateEPiS2_S2_RS0_St17integral_constantIbLb1EE(i32* %10, i32* %11, i32* %12, %"class.std::allocator"* dereferenceable(1) %13) #3
  ret i32* %14
}

; Function Attrs: noinline nounwind optnone uwtable
define linkonce_odr dso_local dereferenceable(8) i32** @_ZNK9__gnu_cxx17__normal_iteratorIPiSt6vectorIiSaIiEEE4baseEv(%"class.__gnu_cxx::__normal_iterator"* %0) #6 comdat align 2 {
  %2 = alloca %"class.__gnu_cxx::__normal_iterator"*, align 8
  store %"class.__gnu_cxx::__normal_iterator"* %0, %"class.__gnu_cxx::__normal_iterator"** %2, align 8
  %3 = load %"class.__gnu_cxx::__normal_iterator"*, %"class.__gnu_cxx::__normal_iterator"** %2, align 8
  %4 = getelementptr inbounds %"class.__gnu_cxx::__normal_iterator", %"class.__gnu_cxx::__normal_iterator"* %3, i32 0, i32 0
  ret i32** %4
}

; Function Attrs: noinline nounwind optnone uwtable
define linkonce_odr dso_local i64 @_ZNKSt6vectorIiSaIiEE8max_sizeEv(%"class.std::vector"* %0) #6 comdat align 2 {
  %2 = alloca %"class.std::vector"*, align 8
  store %"class.std::vector"* %0, %"class.std::vector"** %2, align 8
  %3 = load %"class.std::vector"*, %"class.std::vector"** %2, align 8
  %4 = bitcast %"class.std::vector"* %3 to %"struct.std::_Vector_base"*
  %5 = call dereferenceable(1) %"class.std::allocator"* @_ZNKSt12_Vector_baseIiSaIiEE19_M_get_Tp_allocatorEv(%"struct.std::_Vector_base"* %4) #3
  %6 = call i64 @_ZNSt6vectorIiSaIiEE11_S_max_sizeERKS0_(%"class.std::allocator"* dereferenceable(1) %5) #3
  ret i64 %6
}

; Function Attrs: noinline nounwind optnone uwtable
define linkonce_odr dso_local i64 @_ZNKSt6vectorIiSaIiEE4sizeEv(%"class.std::vector"* %0) #6 comdat align 2 {
  %2 = alloca %"class.std::vector"*, align 8
  store %"class.std::vector"* %0, %"class.std::vector"** %2, align 8
  %3 = load %"class.std::vector"*, %"class.std::vector"** %2, align 8
  %4 = bitcast %"class.std::vector"* %3 to %"struct.std::_Vector_base"*
  %5 = getelementptr inbounds %"struct.std::_Vector_base", %"struct.std::_Vector_base"* %4, i32 0, i32 0
  %6 = bitcast %"struct.std::_Vector_base<int, std::allocator<int> >::_Vector_impl"* %5 to %"struct.std::_Vector_base<int, std::allocator<int> >::_Vector_impl_data"*
  %7 = getelementptr inbounds %"struct.std::_Vector_base<int, std::allocator<int> >::_Vector_impl_data", %"struct.std::_Vector_base<int, std::allocator<int> >::_Vector_impl_data"* %6, i32 0, i32 1
  %8 = load i32*, i32** %7, align 8
  %9 = bitcast %"class.std::vector"* %3 to %"struct.std::_Vector_base"*
  %10 = getelementptr inbounds %"struct.std::_Vector_base", %"struct.std::_Vector_base"* %9, i32 0, i32 0
  %11 = bitcast %"struct.std::_Vector_base<int, std::allocator<int> >::_Vector_impl"* %10 to %"struct.std::_Vector_base<int, std::allocator<int> >::_Vector_impl_data"*
  %12 = getelementptr inbounds %"struct.std::_Vector_base<int, std::allocator<int> >::_Vector_impl_data", %"struct.std::_Vector_base<int, std::allocator<int> >::_Vector_impl_data"* %11, i32 0, i32 0
  %13 = load i32*, i32** %12, align 8
  %14 = ptrtoint i32* %8 to i64
  %15 = ptrtoint i32* %13 to i64
  %16 = sub i64 %14, %15
  %17 = sdiv exact i64 %16, 4
  ret i64 %17
}

; Function Attrs: noinline nounwind optnone uwtable
define linkonce_odr dso_local dereferenceable(8) i64* @_ZSt3maxImERKT_S2_S2_(i64* dereferenceable(8) %0, i64* dereferenceable(8) %1) #6 comdat {
  %3 = alloca i64*, align 8
  %4 = alloca i64*, align 8
  %5 = alloca i64*, align 8
  store i64* %0, i64** %4, align 8
  store i64* %1, i64** %5, align 8
  %6 = load i64*, i64** %4, align 8
  %7 = load i64, i64* %6, align 8
  %8 = load i64*, i64** %5, align 8
  %9 = load i64, i64* %8, align 8
  %10 = icmp ult i64 %7, %9
  br i1 %10, label %11, label %13

11:                                               ; preds = %2
  %12 = load i64*, i64** %5, align 8
  store i64* %12, i64** %3, align 8
  br label %15

13:                                               ; preds = %2
  %14 = load i64*, i64** %4, align 8
  store i64* %14, i64** %3, align 8
  br label %15

15:                                               ; preds = %13, %11
  %16 = load i64*, i64** %3, align 8
  ret i64* %16
}

; Function Attrs: noinline nounwind optnone uwtable
define linkonce_odr dso_local dereferenceable(1) %"class.std::allocator"* @_ZNKSt12_Vector_baseIiSaIiEE19_M_get_Tp_allocatorEv(%"struct.std::_Vector_base"* %0) #6 comdat align 2 {
  %2 = alloca %"struct.std::_Vector_base"*, align 8
  store %"struct.std::_Vector_base"* %0, %"struct.std::_Vector_base"** %2, align 8
  %3 = load %"struct.std::_Vector_base"*, %"struct.std::_Vector_base"** %2, align 8
  %4 = getelementptr inbounds %"struct.std::_Vector_base", %"struct.std::_Vector_base"* %3, i32 0, i32 0
  %5 = bitcast %"struct.std::_Vector_base<int, std::allocator<int> >::_Vector_impl"* %4 to %"class.std::allocator"*
  ret %"class.std::allocator"* %5
}

; Function Attrs: noinline nounwind optnone uwtable
define linkonce_odr dso_local i32* @_ZNSt6vectorIiSaIiEE14_S_do_relocateEPiS2_S2_RS0_St17integral_constantIbLb1EE(i32* %0, i32* %1, i32* %2, %"class.std::allocator"* dereferenceable(1) %3) #6 comdat align 2 {
  %5 = alloca %"struct.std::integral_constant", align 1
  %6 = alloca i32*, align 8
  %7 = alloca i32*, align 8
  %8 = alloca i32*, align 8
  %9 = alloca %"class.std::allocator"*, align 8
  store i32* %0, i32** %6, align 8
  store i32* %1, i32** %7, align 8
  store i32* %2, i32** %8, align 8
  store %"class.std::allocator"* %3, %"class.std::allocator"** %9, align 8
  %10 = load i32*, i32** %6, align 8
  %11 = load i32*, i32** %7, align 8
  %12 = load i32*, i32** %8, align 8
  %13 = load %"class.std::allocator"*, %"class.std::allocator"** %9, align 8
  %14 = call i32* @_ZSt12__relocate_aIPiS0_SaIiEET0_T_S3_S2_RT1_(i32* %10, i32* %11, i32* %12, %"class.std::allocator"* dereferenceable(1) %13) #3
  ret i32* %14
}

; Function Attrs: noinline nounwind optnone uwtable
define linkonce_odr dso_local i32* @_ZSt12__relocate_aIPiS0_SaIiEET0_T_S3_S2_RT1_(i32* %0, i32* %1, i32* %2, %"class.std::allocator"* dereferenceable(1) %3) #6 comdat {
  %5 = alloca i32*, align 8
  %6 = alloca i32*, align 8
  %7 = alloca i32*, align 8
  %8 = alloca %"class.std::allocator"*, align 8
  store i32* %0, i32** %5, align 8
  store i32* %1, i32** %6, align 8
  store i32* %2, i32** %7, align 8
  store %"class.std::allocator"* %3, %"class.std::allocator"** %8, align 8
  %9 = load i32*, i32** %5, align 8
  %10 = call i32* @_ZSt12__niter_baseIPiET_S1_(i32* %9) #3
  %11 = load i32*, i32** %6, align 8
  %12 = call i32* @_ZSt12__niter_baseIPiET_S1_(i32* %11) #3
  %13 = load i32*, i32** %7, align 8
  %14 = call i32* @_ZSt12__niter_baseIPiET_S1_(i32* %13) #3
  %15 = load %"class.std::allocator"*, %"class.std::allocator"** %8, align 8
  %16 = call i32* @_ZSt14__relocate_a_1IiiENSt9enable_ifIXsr3std24__is_bitwise_relocatableIT_EE5valueEPS1_E4typeES2_S2_S2_RSaIT0_E(i32* %10, i32* %12, i32* %14, %"class.std::allocator"* dereferenceable(1) %15) #3
  ret i32* %16
}

; Function Attrs: noinline nounwind optnone uwtable
define linkonce_odr dso_local i32* @_ZSt14__relocate_a_1IiiENSt9enable_ifIXsr3std24__is_bitwise_relocatableIT_EE5valueEPS1_E4typeES2_S2_S2_RSaIT0_E(i32* %0, i32* %1, i32* %2, %"class.std::allocator"* dereferenceable(1) %3) #6 comdat {
  %5 = alloca i32*, align 8
  %6 = alloca i32*, align 8
  %7 = alloca i32*, align 8
  %8 = alloca %"class.std::allocator"*, align 8
  %9 = alloca i64, align 8
  store i32* %0, i32** %5, align 8
  store i32* %1, i32** %6, align 8
  store i32* %2, i32** %7, align 8
  store %"class.std::allocator"* %3, %"class.std::allocator"** %8, align 8
  %10 = load i32*, i32** %6, align 8
  %11 = load i32*, i32** %5, align 8
  %12 = ptrtoint i32* %10 to i64
  %13 = ptrtoint i32* %11 to i64
  %14 = sub i64 %12, %13
  %15 = sdiv exact i64 %14, 4
  store i64 %15, i64* %9, align 8
  %16 = load i64, i64* %9, align 8
  %17 = icmp sgt i64 %16, 0
  br i1 %17, label %18, label %25

18:                                               ; preds = %4
  %19 = load i32*, i32** %7, align 8
  %20 = bitcast i32* %19 to i8*
  %21 = load i32*, i32** %5, align 8
  %22 = bitcast i32* %21 to i8*
  %23 = load i64, i64* %9, align 8
  %24 = mul i64 %23, 4
  call void @llvm.memmove.p0i8.p0i8.i64(i8* align 4 %20, i8* align 4 %22, i64 %24, i1 false)
  br label %25

25:                                               ; preds = %18, %4
  %26 = load i32*, i32** %7, align 8
  %27 = load i64, i64* %9, align 8
  %28 = getelementptr inbounds i32, i32* %26, i64 %27
  ret i32* %28
}

; Function Attrs: noinline nounwind optnone uwtable
define linkonce_odr dso_local void @_ZN9__gnu_cxx17__normal_iteratorIPiSt6vectorIiSaIiEEEC2ERKS1_(%"class.__gnu_cxx::__normal_iterator"* %0, i32** dereferenceable(8) %1) unnamed_addr #6 comdat align 2 {
  %3 = alloca %"class.__gnu_cxx::__normal_iterator"*, align 8
  %4 = alloca i32**, align 8
  store %"class.__gnu_cxx::__normal_iterator"* %0, %"class.__gnu_cxx::__normal_iterator"** %3, align 8
  store i32** %1, i32*** %4, align 8
  %5 = load %"class.__gnu_cxx::__normal_iterator"*, %"class.__gnu_cxx::__normal_iterator"** %3, align 8
  %6 = getelementptr inbounds %"class.__gnu_cxx::__normal_iterator", %"class.__gnu_cxx::__normal_iterator"* %5, i32 0, i32 0
  %7 = load i32**, i32*** %4, align 8
  %8 = load i32*, i32** %7, align 8
  store i32* %8, i32** %6, align 8
  ret void
}

; Function Attrs: noinline nounwind optnone uwtable
define internal void @"_ZZ4mainENK3$_0clERi"(%class.anon* %0, i32* dereferenceable(4) %1) #6 align 2 {
  %3 = alloca %class.anon*, align 8
  %4 = alloca i32*, align 8
  store %class.anon* %0, %class.anon** %3, align 8
  store i32* %1, i32** %4, align 8
  %5 = load %class.anon*, %class.anon** %3, align 8
  %6 = load i32*, i32** %4, align 8
  %7 = load i32, i32* %6, align 4
  %8 = sub nsw i32 %7, 423
  store i32 %8, i32* %6, align 4
  ret void
}

; Function Attrs: noinline nounwind optnone uwtable
define linkonce_odr dso_local void @_ZNSt16reverse_iteratorIN9__gnu_cxx17__normal_iteratorIPiSt6vectorIiSaIiEEEEEC2ES6_(%"class.std::reverse_iterator"* %0, i32* %1) unnamed_addr #6 comdat align 2 {
  %3 = alloca %"class.__gnu_cxx::__normal_iterator", align 8
  %4 = alloca %"class.std::reverse_iterator"*, align 8
  %5 = getelementptr inbounds %"class.__gnu_cxx::__normal_iterator", %"class.__gnu_cxx::__normal_iterator"* %3, i32 0, i32 0
  store i32* %1, i32** %5, align 8
  store %"class.std::reverse_iterator"* %0, %"class.std::reverse_iterator"** %4, align 8
  %6 = load %"class.std::reverse_iterator"*, %"class.std::reverse_iterator"** %4, align 8
  %7 = bitcast %"class.std::reverse_iterator"* %6 to %"struct.std::iterator.0"*
  %8 = getelementptr inbounds %"class.std::reverse_iterator", %"class.std::reverse_iterator"* %6, i32 0, i32 0
  %9 = bitcast %"class.__gnu_cxx::__normal_iterator"* %8 to i8*
  %10 = bitcast %"class.__gnu_cxx::__normal_iterator"* %3 to i8*
  call void @llvm.memcpy.p0i8.p0i8.i64(i8* align 8 %9, i8* align 8 %10, i64 8, i1 false)
  ret void
}

; Function Attrs: noinline nounwind optnone uwtable
define linkonce_odr dso_local void @_ZNSt20back_insert_iteratorISt6vectorIiSaIiEEEC2ERS2_(%"class.std::back_insert_iterator"* %0, %"class.std::vector"* dereferenceable(24) %1) unnamed_addr #6 comdat align 2 {
  %3 = alloca %"class.std::back_insert_iterator"*, align 8
  %4 = alloca %"class.std::vector"*, align 8
  store %"class.std::back_insert_iterator"* %0, %"class.std::back_insert_iterator"** %3, align 8
  store %"class.std::vector"* %1, %"class.std::vector"** %4, align 8
  %5 = load %"class.std::back_insert_iterator"*, %"class.std::back_insert_iterator"** %3, align 8
  %6 = bitcast %"class.std::back_insert_iterator"* %5 to %"struct.std::iterator"*
  %7 = getelementptr inbounds %"class.std::back_insert_iterator", %"class.std::back_insert_iterator"* %5, i32 0, i32 0
  %8 = load %"class.std::vector"*, %"class.std::vector"** %4, align 8
  %9 = call %"class.std::vector"* @_ZSt11__addressofISt6vectorIiSaIiEEEPT_RS3_(%"class.std::vector"* dereferenceable(24) %8) #3
  store %"class.std::vector"* %9, %"class.std::vector"** %7, align 8
  ret void
}

; Function Attrs: noinline nounwind optnone uwtable
define linkonce_odr dso_local %"class.std::vector"* @_ZSt11__addressofISt6vectorIiSaIiEEEPT_RS3_(%"class.std::vector"* dereferenceable(24) %0) #6 comdat {
  %2 = alloca %"class.std::vector"*, align 8
  store %"class.std::vector"* %0, %"class.std::vector"** %2, align 8
  %3 = load %"class.std::vector"*, %"class.std::vector"** %2, align 8
  ret %"class.std::vector"* %3
}

; Function Attrs: noinline optnone uwtable
define linkonce_odr dso_local zeroext i1 @_ZStneIN9__gnu_cxx17__normal_iteratorIPiSt6vectorIiSaIiEEEEEbRKSt16reverse_iteratorIT_ESB_(%"class.std::reverse_iterator"* dereferenceable(8) %0, %"class.std::reverse_iterator"* dereferenceable(8) %1) #7 comdat {
  %3 = alloca %"class.std::reverse_iterator"*, align 8
  %4 = alloca %"class.std::reverse_iterator"*, align 8
  store %"class.std::reverse_iterator"* %0, %"class.std::reverse_iterator"** %3, align 8
  store %"class.std::reverse_iterator"* %1, %"class.std::reverse_iterator"** %4, align 8
  %5 = load %"class.std::reverse_iterator"*, %"class.std::reverse_iterator"** %3, align 8
  %6 = load %"class.std::reverse_iterator"*, %"class.std::reverse_iterator"** %4, align 8
  %7 = call zeroext i1 @_ZSteqIN9__gnu_cxx17__normal_iteratorIPiSt6vectorIiSaIiEEEEEbRKSt16reverse_iteratorIT_ESB_(%"class.std::reverse_iterator"* dereferenceable(8) %5, %"class.std::reverse_iterator"* dereferenceable(8) %6)
  %8 = xor i1 %7, true
  ret i1 %8
}

; Function Attrs: noinline nounwind optnone uwtable
define internal i32 @"_ZZ4mainENK3$_1clERiS0_"(%class.anon.1* %0, i32* dereferenceable(4) %1, i32* dereferenceable(4) %2) #6 align 2 {
  %4 = alloca %class.anon.1*, align 8
  %5 = alloca i32*, align 8
  %6 = alloca i32*, align 8
  store %class.anon.1* %0, %class.anon.1** %4, align 8
  store i32* %1, i32** %5, align 8
  store i32* %2, i32** %6, align 8
  %7 = load %class.anon.1*, %class.anon.1** %4, align 8
  %8 = load i32*, i32** %5, align 8
  %9 = load i32, i32* %8, align 4
  %10 = load i32*, i32** %6, align 8
  %11 = load i32, i32* %10, align 4
  %12 = xor i32 %9, %11
  ret i32 %12
}

; Function Attrs: noinline nounwind optnone uwtable
define linkonce_odr dso_local dereferenceable(4) i32* @_ZNKSt16reverse_iteratorIN9__gnu_cxx17__normal_iteratorIPiSt6vectorIiSaIiEEEEEdeEv(%"class.std::reverse_iterator"* %0) #6 comdat align 2 {
  %2 = alloca %"class.std::reverse_iterator"*, align 8
  %3 = alloca %"class.__gnu_cxx::__normal_iterator", align 8
  store %"class.std::reverse_iterator"* %0, %"class.std::reverse_iterator"** %2, align 8
  %4 = load %"class.std::reverse_iterator"*, %"class.std::reverse_iterator"** %2, align 8
  %5 = getelementptr inbounds %"class.std::reverse_iterator", %"class.std::reverse_iterator"* %4, i32 0, i32 0
  %6 = bitcast %"class.__gnu_cxx::__normal_iterator"* %3 to i8*
  %7 = bitcast %"class.__gnu_cxx::__normal_iterator"* %5 to i8*
  call void @llvm.memcpy.p0i8.p0i8.i64(i8* align 8 %6, i8* align 8 %7, i64 8, i1 false)
  %8 = call dereferenceable(8) %"class.__gnu_cxx::__normal_iterator"* @_ZN9__gnu_cxx17__normal_iteratorIPiSt6vectorIiSaIiEEEmmEv(%"class.__gnu_cxx::__normal_iterator"* %3) #3
  %9 = call dereferenceable(4) i32* @_ZNK9__gnu_cxx17__normal_iteratorIPiSt6vectorIiSaIiEEEdeEv(%"class.__gnu_cxx::__normal_iterator"* %8) #3
  ret i32* %9
}

; Function Attrs: noinline nounwind optnone uwtable
define linkonce_odr dso_local dereferenceable(8) %"class.std::back_insert_iterator"* @_ZNSt20back_insert_iteratorISt6vectorIiSaIiEEEdeEv(%"class.std::back_insert_iterator"* %0) #6 comdat align 2 {
  %2 = alloca %"class.std::back_insert_iterator"*, align 8
  store %"class.std::back_insert_iterator"* %0, %"class.std::back_insert_iterator"** %2, align 8
  %3 = load %"class.std::back_insert_iterator"*, %"class.std::back_insert_iterator"** %2, align 8
  ret %"class.std::back_insert_iterator"* %3
}

; Function Attrs: noinline optnone uwtable
define linkonce_odr dso_local dereferenceable(8) %"class.std::back_insert_iterator"* @_ZNSt20back_insert_iteratorISt6vectorIiSaIiEEEaSEOi(%"class.std::back_insert_iterator"* %0, i32* dereferenceable(4) %1) #7 comdat align 2 {
  %3 = alloca %"class.std::back_insert_iterator"*, align 8
  %4 = alloca i32*, align 8
  store %"class.std::back_insert_iterator"* %0, %"class.std::back_insert_iterator"** %3, align 8
  store i32* %1, i32** %4, align 8
  %5 = load %"class.std::back_insert_iterator"*, %"class.std::back_insert_iterator"** %3, align 8
  %6 = getelementptr inbounds %"class.std::back_insert_iterator", %"class.std::back_insert_iterator"* %5, i32 0, i32 0
  %7 = load %"class.std::vector"*, %"class.std::vector"** %6, align 8
  %8 = load i32*, i32** %4, align 8
  %9 = call dereferenceable(4) i32* @_ZSt4moveIRiEONSt16remove_referenceIT_E4typeEOS2_(i32* dereferenceable(4) %8) #3
  call void @_ZNSt6vectorIiSaIiEE9push_backEOi(%"class.std::vector"* %7, i32* dereferenceable(4) %9)
  ret %"class.std::back_insert_iterator"* %5
}

; Function Attrs: noinline nounwind optnone uwtable
define linkonce_odr dso_local dereferenceable(8) %"class.std::reverse_iterator"* @_ZNSt16reverse_iteratorIN9__gnu_cxx17__normal_iteratorIPiSt6vectorIiSaIiEEEEEppEv(%"class.std::reverse_iterator"* %0) #6 comdat align 2 {
  %2 = alloca %"class.std::reverse_iterator"*, align 8
  store %"class.std::reverse_iterator"* %0, %"class.std::reverse_iterator"** %2, align 8
  %3 = load %"class.std::reverse_iterator"*, %"class.std::reverse_iterator"** %2, align 8
  %4 = getelementptr inbounds %"class.std::reverse_iterator", %"class.std::reverse_iterator"* %3, i32 0, i32 0
  %5 = call dereferenceable(8) %"class.__gnu_cxx::__normal_iterator"* @_ZN9__gnu_cxx17__normal_iteratorIPiSt6vectorIiSaIiEEEmmEv(%"class.__gnu_cxx::__normal_iterator"* %4) #3
  ret %"class.std::reverse_iterator"* %3
}

; Function Attrs: noinline nounwind optnone uwtable
define linkonce_odr dso_local dereferenceable(8) %"class.std::back_insert_iterator"* @_ZNSt20back_insert_iteratorISt6vectorIiSaIiEEEppEv(%"class.std::back_insert_iterator"* %0) #6 comdat align 2 {
  %2 = alloca %"class.std::back_insert_iterator"*, align 8
  store %"class.std::back_insert_iterator"* %0, %"class.std::back_insert_iterator"** %2, align 8
  %3 = load %"class.std::back_insert_iterator"*, %"class.std::back_insert_iterator"** %2, align 8
  ret %"class.std::back_insert_iterator"* %3
}

; Function Attrs: noinline optnone uwtable
define linkonce_odr dso_local zeroext i1 @_ZSteqIN9__gnu_cxx17__normal_iteratorIPiSt6vectorIiSaIiEEEEEbRKSt16reverse_iteratorIT_ESB_(%"class.std::reverse_iterator"* dereferenceable(8) %0, %"class.std::reverse_iterator"* dereferenceable(8) %1) #7 comdat {
  %3 = alloca %"class.std::reverse_iterator"*, align 8
  %4 = alloca %"class.std::reverse_iterator"*, align 8
  %5 = alloca %"class.__gnu_cxx::__normal_iterator", align 8
  %6 = alloca %"class.__gnu_cxx::__normal_iterator", align 8
  store %"class.std::reverse_iterator"* %0, %"class.std::reverse_iterator"** %3, align 8
  store %"class.std::reverse_iterator"* %1, %"class.std::reverse_iterator"** %4, align 8
  %7 = load %"class.std::reverse_iterator"*, %"class.std::reverse_iterator"** %3, align 8
  %8 = call i32* @_ZNKSt16reverse_iteratorIN9__gnu_cxx17__normal_iteratorIPiSt6vectorIiSaIiEEEEE4baseEv(%"class.std::reverse_iterator"* %7)
  %9 = getelementptr inbounds %"class.__gnu_cxx::__normal_iterator", %"class.__gnu_cxx::__normal_iterator"* %5, i32 0, i32 0
  store i32* %8, i32** %9, align 8
  %10 = load %"class.std::reverse_iterator"*, %"class.std::reverse_iterator"** %4, align 8
  %11 = call i32* @_ZNKSt16reverse_iteratorIN9__gnu_cxx17__normal_iteratorIPiSt6vectorIiSaIiEEEEE4baseEv(%"class.std::reverse_iterator"* %10)
  %12 = getelementptr inbounds %"class.__gnu_cxx::__normal_iterator", %"class.__gnu_cxx::__normal_iterator"* %6, i32 0, i32 0
  store i32* %11, i32** %12, align 8
  %13 = call zeroext i1 @_ZN9__gnu_cxxeqIPiSt6vectorIiSaIiEEEEbRKNS_17__normal_iteratorIT_T0_EESA_(%"class.__gnu_cxx::__normal_iterator"* dereferenceable(8) %5, %"class.__gnu_cxx::__normal_iterator"* dereferenceable(8) %6) #3
  ret i1 %13
}

; Function Attrs: noinline nounwind optnone uwtable
define linkonce_odr dso_local zeroext i1 @_ZN9__gnu_cxxeqIPiSt6vectorIiSaIiEEEEbRKNS_17__normal_iteratorIT_T0_EESA_(%"class.__gnu_cxx::__normal_iterator"* dereferenceable(8) %0, %"class.__gnu_cxx::__normal_iterator"* dereferenceable(8) %1) #6 comdat {
  %3 = alloca %"class.__gnu_cxx::__normal_iterator"*, align 8
  %4 = alloca %"class.__gnu_cxx::__normal_iterator"*, align 8
  store %"class.__gnu_cxx::__normal_iterator"* %0, %"class.__gnu_cxx::__normal_iterator"** %3, align 8
  store %"class.__gnu_cxx::__normal_iterator"* %1, %"class.__gnu_cxx::__normal_iterator"** %4, align 8
  %5 = load %"class.__gnu_cxx::__normal_iterator"*, %"class.__gnu_cxx::__normal_iterator"** %3, align 8
  %6 = call dereferenceable(8) i32** @_ZNK9__gnu_cxx17__normal_iteratorIPiSt6vectorIiSaIiEEE4baseEv(%"class.__gnu_cxx::__normal_iterator"* %5) #3
  %7 = load i32*, i32** %6, align 8
  %8 = load %"class.__gnu_cxx::__normal_iterator"*, %"class.__gnu_cxx::__normal_iterator"** %4, align 8
  %9 = call dereferenceable(8) i32** @_ZNK9__gnu_cxx17__normal_iteratorIPiSt6vectorIiSaIiEEE4baseEv(%"class.__gnu_cxx::__normal_iterator"* %8) #3
  %10 = load i32*, i32** %9, align 8
  %11 = icmp eq i32* %7, %10
  ret i1 %11
}

; Function Attrs: noinline nounwind optnone uwtable
define linkonce_odr dso_local i32* @_ZNKSt16reverse_iteratorIN9__gnu_cxx17__normal_iteratorIPiSt6vectorIiSaIiEEEEE4baseEv(%"class.std::reverse_iterator"* %0) #6 comdat align 2 {
  %2 = alloca %"class.__gnu_cxx::__normal_iterator", align 8
  %3 = alloca %"class.std::reverse_iterator"*, align 8
  store %"class.std::reverse_iterator"* %0, %"class.std::reverse_iterator"** %3, align 8
  %4 = load %"class.std::reverse_iterator"*, %"class.std::reverse_iterator"** %3, align 8
  %5 = getelementptr inbounds %"class.std::reverse_iterator", %"class.std::reverse_iterator"* %4, i32 0, i32 0
  %6 = bitcast %"class.__gnu_cxx::__normal_iterator"* %2 to i8*
  %7 = bitcast %"class.__gnu_cxx::__normal_iterator"* %5 to i8*
  call void @llvm.memcpy.p0i8.p0i8.i64(i8* align 8 %6, i8* align 8 %7, i64 8, i1 false)
  %8 = getelementptr inbounds %"class.__gnu_cxx::__normal_iterator", %"class.__gnu_cxx::__normal_iterator"* %2, i32 0, i32 0
  %9 = load i32*, i32** %8, align 8
  ret i32* %9
}

; Function Attrs: noinline nounwind optnone uwtable
define linkonce_odr dso_local dereferenceable(8) %"class.__gnu_cxx::__normal_iterator"* @_ZN9__gnu_cxx17__normal_iteratorIPiSt6vectorIiSaIiEEEmmEv(%"class.__gnu_cxx::__normal_iterator"* %0) #6 comdat align 2 {
  %2 = alloca %"class.__gnu_cxx::__normal_iterator"*, align 8
  store %"class.__gnu_cxx::__normal_iterator"* %0, %"class.__gnu_cxx::__normal_iterator"** %2, align 8
  %3 = load %"class.__gnu_cxx::__normal_iterator"*, %"class.__gnu_cxx::__normal_iterator"** %2, align 8
  %4 = getelementptr inbounds %"class.__gnu_cxx::__normal_iterator", %"class.__gnu_cxx::__normal_iterator"* %3, i32 0, i32 0
  %5 = load i32*, i32** %4, align 8
  %6 = getelementptr inbounds i32, i32* %5, i32 -1
  store i32* %6, i32** %4, align 8
  ret %"class.__gnu_cxx::__normal_iterator"* %3
}

; Function Attrs: noinline optnone uwtable
define linkonce_odr dso_local void @_ZNSt6vectorIiSaIiEE9push_backEOi(%"class.std::vector"* %0, i32* dereferenceable(4) %1) #7 comdat align 2 {
  %3 = alloca %"class.std::vector"*, align 8
  %4 = alloca i32*, align 8
  store %"class.std::vector"* %0, %"class.std::vector"** %3, align 8
  store i32* %1, i32** %4, align 8
  %5 = load %"class.std::vector"*, %"class.std::vector"** %3, align 8
  %6 = load i32*, i32** %4, align 8
  %7 = call dereferenceable(4) i32* @_ZSt4moveIRiEONSt16remove_referenceIT_E4typeEOS2_(i32* dereferenceable(4) %6) #3
  call void @_ZNSt6vectorIiSaIiEE12emplace_backIJiEEEvDpOT_(%"class.std::vector"* %5, i32* dereferenceable(4) %7)
  ret void
}

; Function Attrs: noinline nounwind optnone uwtable
define linkonce_odr dso_local dereferenceable(4) i32* @_ZSt4moveIRiEONSt16remove_referenceIT_E4typeEOS2_(i32* dereferenceable(4) %0) #6 comdat {
  %2 = alloca i32*, align 8
  store i32* %0, i32** %2, align 8
  %3 = load i32*, i32** %2, align 8
  ret i32* %3
}

; Function Attrs: noinline optnone uwtable
define linkonce_odr dso_local void @_ZNSt6vectorIiSaIiEE12emplace_backIJiEEEvDpOT_(%"class.std::vector"* %0, i32* dereferenceable(4) %1) #7 comdat align 2 {
  %3 = alloca %"class.std::vector"*, align 8
  %4 = alloca i32*, align 8
  %5 = alloca %"class.__gnu_cxx::__normal_iterator", align 8
  store %"class.std::vector"* %0, %"class.std::vector"** %3, align 8
  store i32* %1, i32** %4, align 8
  %6 = load %"class.std::vector"*, %"class.std::vector"** %3, align 8
  %7 = bitcast %"class.std::vector"* %6 to %"struct.std::_Vector_base"*
  %8 = getelementptr inbounds %"struct.std::_Vector_base", %"struct.std::_Vector_base"* %7, i32 0, i32 0
  %9 = bitcast %"struct.std::_Vector_base<int, std::allocator<int> >::_Vector_impl"* %8 to %"struct.std::_Vector_base<int, std::allocator<int> >::_Vector_impl_data"*
  %10 = getelementptr inbounds %"struct.std::_Vector_base<int, std::allocator<int> >::_Vector_impl_data", %"struct.std::_Vector_base<int, std::allocator<int> >::_Vector_impl_data"* %9, i32 0, i32 1
  %11 = load i32*, i32** %10, align 8
  %12 = bitcast %"class.std::vector"* %6 to %"struct.std::_Vector_base"*
  %13 = getelementptr inbounds %"struct.std::_Vector_base", %"struct.std::_Vector_base"* %12, i32 0, i32 0
  %14 = bitcast %"struct.std::_Vector_base<int, std::allocator<int> >::_Vector_impl"* %13 to %"struct.std::_Vector_base<int, std::allocator<int> >::_Vector_impl_data"*
  %15 = getelementptr inbounds %"struct.std::_Vector_base<int, std::allocator<int> >::_Vector_impl_data", %"struct.std::_Vector_base<int, std::allocator<int> >::_Vector_impl_data"* %14, i32 0, i32 2
  %16 = load i32*, i32** %15, align 8
  %17 = icmp ne i32* %11, %16
  br i1 %17, label %18, label %35

18:                                               ; preds = %2
  %19 = bitcast %"class.std::vector"* %6 to %"struct.std::_Vector_base"*
  %20 = getelementptr inbounds %"struct.std::_Vector_base", %"struct.std::_Vector_base"* %19, i32 0, i32 0
  %21 = bitcast %"struct.std::_Vector_base<int, std::allocator<int> >::_Vector_impl"* %20 to %"class.std::allocator"*
  %22 = bitcast %"class.std::vector"* %6 to %"struct.std::_Vector_base"*
  %23 = getelementptr inbounds %"struct.std::_Vector_base", %"struct.std::_Vector_base"* %22, i32 0, i32 0
  %24 = bitcast %"struct.std::_Vector_base<int, std::allocator<int> >::_Vector_impl"* %23 to %"struct.std::_Vector_base<int, std::allocator<int> >::_Vector_impl_data"*
  %25 = getelementptr inbounds %"struct.std::_Vector_base<int, std::allocator<int> >::_Vector_impl_data", %"struct.std::_Vector_base<int, std::allocator<int> >::_Vector_impl_data"* %24, i32 0, i32 1
  %26 = load i32*, i32** %25, align 8
  %27 = load i32*, i32** %4, align 8
  %28 = call dereferenceable(4) i32* @_ZSt7forwardIiEOT_RNSt16remove_referenceIS0_E4typeE(i32* dereferenceable(4) %27) #3
  call void @_ZNSt16allocator_traitsISaIiEE9constructIiJiEEEvRS0_PT_DpOT0_(%"class.std::allocator"* dereferenceable(1) %21, i32* %26, i32* dereferenceable(4) %28) #3
  %29 = bitcast %"class.std::vector"* %6 to %"struct.std::_Vector_base"*
  %30 = getelementptr inbounds %"struct.std::_Vector_base", %"struct.std::_Vector_base"* %29, i32 0, i32 0
  %31 = bitcast %"struct.std::_Vector_base<int, std::allocator<int> >::_Vector_impl"* %30 to %"struct.std::_Vector_base<int, std::allocator<int> >::_Vector_impl_data"*
  %32 = getelementptr inbounds %"struct.std::_Vector_base<int, std::allocator<int> >::_Vector_impl_data", %"struct.std::_Vector_base<int, std::allocator<int> >::_Vector_impl_data"* %31, i32 0, i32 1
  %33 = load i32*, i32** %32, align 8
  %34 = getelementptr inbounds i32, i32* %33, i32 1
  store i32* %34, i32** %32, align 8
  br label %42

35:                                               ; preds = %2
  %36 = call i32* @_ZNSt6vectorIiSaIiEE3endEv(%"class.std::vector"* %6) #3
  %37 = getelementptr inbounds %"class.__gnu_cxx::__normal_iterator", %"class.__gnu_cxx::__normal_iterator"* %5, i32 0, i32 0
  store i32* %36, i32** %37, align 8
  %38 = load i32*, i32** %4, align 8
  %39 = call dereferenceable(4) i32* @_ZSt7forwardIiEOT_RNSt16remove_referenceIS0_E4typeE(i32* dereferenceable(4) %38) #3
  %40 = getelementptr inbounds %"class.__gnu_cxx::__normal_iterator", %"class.__gnu_cxx::__normal_iterator"* %5, i32 0, i32 0
  %41 = load i32*, i32** %40, align 8
  call void @_ZNSt6vectorIiSaIiEE17_M_realloc_insertIJiEEEvN9__gnu_cxx17__normal_iteratorIPiS1_EEDpOT_(%"class.std::vector"* %6, i32* %41, i32* dereferenceable(4) %39)
  br label %42

42:                                               ; preds = %35, %18
  ret void
}

; Function Attrs: noinline nounwind optnone uwtable
define linkonce_odr dso_local void @_ZNSt16allocator_traitsISaIiEE9constructIiJiEEEvRS0_PT_DpOT0_(%"class.std::allocator"* dereferenceable(1) %0, i32* %1, i32* dereferenceable(4) %2) #6 comdat align 2 {
  %4 = alloca %"class.std::allocator"*, align 8
  %5 = alloca i32*, align 8
  %6 = alloca i32*, align 8
  store %"class.std::allocator"* %0, %"class.std::allocator"** %4, align 8
  store i32* %1, i32** %5, align 8
  store i32* %2, i32** %6, align 8
  %7 = load %"class.std::allocator"*, %"class.std::allocator"** %4, align 8
  %8 = bitcast %"class.std::allocator"* %7 to %"class.__gnu_cxx::new_allocator"*
  %9 = load i32*, i32** %5, align 8
  %10 = load i32*, i32** %6, align 8
  %11 = call dereferenceable(4) i32* @_ZSt7forwardIiEOT_RNSt16remove_referenceIS0_E4typeE(i32* dereferenceable(4) %10) #3
  call void @_ZN9__gnu_cxx13new_allocatorIiE9constructIiJiEEEvPT_DpOT0_(%"class.__gnu_cxx::new_allocator"* %8, i32* %9, i32* dereferenceable(4) %11) #3
  ret void
}

; Function Attrs: noinline nounwind optnone uwtable
define linkonce_odr dso_local dereferenceable(4) i32* @_ZSt7forwardIiEOT_RNSt16remove_referenceIS0_E4typeE(i32* dereferenceable(4) %0) #6 comdat {
  %2 = alloca i32*, align 8
  store i32* %0, i32** %2, align 8
  %3 = load i32*, i32** %2, align 8
  ret i32* %3
}

; Function Attrs: noinline optnone uwtable
define linkonce_odr dso_local void @_ZNSt6vectorIiSaIiEE17_M_realloc_insertIJiEEEvN9__gnu_cxx17__normal_iteratorIPiS1_EEDpOT_(%"class.std::vector"* %0, i32* %1, i32* dereferenceable(4) %2) #7 comdat align 2 {
  %4 = alloca %"class.__gnu_cxx::__normal_iterator", align 8
  %5 = alloca %"class.std::vector"*, align 8
  %6 = alloca i32*, align 8
  %7 = alloca i64, align 8
  %8 = alloca i32*, align 8
  %9 = alloca i32*, align 8
  %10 = alloca i64, align 8
  %11 = alloca %"class.__gnu_cxx::__normal_iterator", align 8
  %12 = alloca i32*, align 8
  %13 = alloca i32*, align 8
  %14 = getelementptr inbounds %"class.__gnu_cxx::__normal_iterator", %"class.__gnu_cxx::__normal_iterator"* %4, i32 0, i32 0
  store i32* %1, i32** %14, align 8
  store %"class.std::vector"* %0, %"class.std::vector"** %5, align 8
  store i32* %2, i32** %6, align 8
  %15 = load %"class.std::vector"*, %"class.std::vector"** %5, align 8
  %16 = call i64 @_ZNKSt6vectorIiSaIiEE12_M_check_lenEmPKc(%"class.std::vector"* %15, i64 1, i8* getelementptr inbounds ([26 x i8], [26 x i8]* @.str.2, i64 0, i64 0))
  store i64 %16, i64* %7, align 8
  %17 = bitcast %"class.std::vector"* %15 to %"struct.std::_Vector_base"*
  %18 = getelementptr inbounds %"struct.std::_Vector_base", %"struct.std::_Vector_base"* %17, i32 0, i32 0
  %19 = bitcast %"struct.std::_Vector_base<int, std::allocator<int> >::_Vector_impl"* %18 to %"struct.std::_Vector_base<int, std::allocator<int> >::_Vector_impl_data"*
  %20 = getelementptr inbounds %"struct.std::_Vector_base<int, std::allocator<int> >::_Vector_impl_data", %"struct.std::_Vector_base<int, std::allocator<int> >::_Vector_impl_data"* %19, i32 0, i32 0
  %21 = load i32*, i32** %20, align 8
  store i32* %21, i32** %8, align 8
  %22 = bitcast %"class.std::vector"* %15 to %"struct.std::_Vector_base"*
  %23 = getelementptr inbounds %"struct.std::_Vector_base", %"struct.std::_Vector_base"* %22, i32 0, i32 0
  %24 = bitcast %"struct.std::_Vector_base<int, std::allocator<int> >::_Vector_impl"* %23 to %"struct.std::_Vector_base<int, std::allocator<int> >::_Vector_impl_data"*
  %25 = getelementptr inbounds %"struct.std::_Vector_base<int, std::allocator<int> >::_Vector_impl_data", %"struct.std::_Vector_base<int, std::allocator<int> >::_Vector_impl_data"* %24, i32 0, i32 1
  %26 = load i32*, i32** %25, align 8
  store i32* %26, i32** %9, align 8
  %27 = call i32* @_ZNSt6vectorIiSaIiEE5beginEv(%"class.std::vector"* %15) #3
  %28 = getelementptr inbounds %"class.__gnu_cxx::__normal_iterator", %"class.__gnu_cxx::__normal_iterator"* %11, i32 0, i32 0
  store i32* %27, i32** %28, align 8
  %29 = call i64 @_ZN9__gnu_cxxmiIPiSt6vectorIiSaIiEEEENS_17__normal_iteratorIT_T0_E15difference_typeERKS8_SB_(%"class.__gnu_cxx::__normal_iterator"* dereferenceable(8) %4, %"class.__gnu_cxx::__normal_iterator"* dereferenceable(8) %11) #3
  store i64 %29, i64* %10, align 8
  %30 = bitcast %"class.std::vector"* %15 to %"struct.std::_Vector_base"*
  %31 = load i64, i64* %7, align 8
  %32 = call i32* @_ZNSt12_Vector_baseIiSaIiEE11_M_allocateEm(%"struct.std::_Vector_base"* %30, i64 %31)
  store i32* %32, i32** %12, align 8
  %33 = load i32*, i32** %12, align 8
  store i32* %33, i32** %13, align 8
  %34 = bitcast %"class.std::vector"* %15 to %"struct.std::_Vector_base"*
  %35 = getelementptr inbounds %"struct.std::_Vector_base", %"struct.std::_Vector_base"* %34, i32 0, i32 0
  %36 = bitcast %"struct.std::_Vector_base<int, std::allocator<int> >::_Vector_impl"* %35 to %"class.std::allocator"*
  %37 = load i32*, i32** %12, align 8
  %38 = load i64, i64* %10, align 8
  %39 = getelementptr inbounds i32, i32* %37, i64 %38
  %40 = load i32*, i32** %6, align 8
  %41 = call dereferenceable(4) i32* @_ZSt7forwardIiEOT_RNSt16remove_referenceIS0_E4typeE(i32* dereferenceable(4) %40) #3
  call void @_ZNSt16allocator_traitsISaIiEE9constructIiJiEEEvRS0_PT_DpOT0_(%"class.std::allocator"* dereferenceable(1) %36, i32* %39, i32* dereferenceable(4) %41) #3
  store i32* null, i32** %13, align 8
  %42 = load i32*, i32** %8, align 8
  %43 = call dereferenceable(8) i32** @_ZNK9__gnu_cxx17__normal_iteratorIPiSt6vectorIiSaIiEEE4baseEv(%"class.__gnu_cxx::__normal_iterator"* %4) #3
  %44 = load i32*, i32** %43, align 8
  %45 = load i32*, i32** %12, align 8
  %46 = bitcast %"class.std::vector"* %15 to %"struct.std::_Vector_base"*
  %47 = call dereferenceable(1) %"class.std::allocator"* @_ZNSt12_Vector_baseIiSaIiEE19_M_get_Tp_allocatorEv(%"struct.std::_Vector_base"* %46) #3
  %48 = call i32* @_ZNSt6vectorIiSaIiEE11_S_relocateEPiS2_S2_RS0_(i32* %42, i32* %44, i32* %45, %"class.std::allocator"* dereferenceable(1) %47) #3
  store i32* %48, i32** %13, align 8
  %49 = load i32*, i32** %13, align 8
  %50 = getelementptr inbounds i32, i32* %49, i32 1
  store i32* %50, i32** %13, align 8
  %51 = call dereferenceable(8) i32** @_ZNK9__gnu_cxx17__normal_iteratorIPiSt6vectorIiSaIiEEE4baseEv(%"class.__gnu_cxx::__normal_iterator"* %4) #3
  %52 = load i32*, i32** %51, align 8
  %53 = load i32*, i32** %9, align 8
  %54 = load i32*, i32** %13, align 8
  %55 = bitcast %"class.std::vector"* %15 to %"struct.std::_Vector_base"*
  %56 = call dereferenceable(1) %"class.std::allocator"* @_ZNSt12_Vector_baseIiSaIiEE19_M_get_Tp_allocatorEv(%"struct.std::_Vector_base"* %55) #3
  %57 = call i32* @_ZNSt6vectorIiSaIiEE11_S_relocateEPiS2_S2_RS0_(i32* %52, i32* %53, i32* %54, %"class.std::allocator"* dereferenceable(1) %56) #3
  store i32* %57, i32** %13, align 8
  %58 = bitcast %"class.std::vector"* %15 to %"struct.std::_Vector_base"*
  %59 = load i32*, i32** %8, align 8
  %60 = bitcast %"class.std::vector"* %15 to %"struct.std::_Vector_base"*
  %61 = getelementptr inbounds %"struct.std::_Vector_base", %"struct.std::_Vector_base"* %60, i32 0, i32 0
  %62 = bitcast %"struct.std::_Vector_base<int, std::allocator<int> >::_Vector_impl"* %61 to %"struct.std::_Vector_base<int, std::allocator<int> >::_Vector_impl_data"*
  %63 = getelementptr inbounds %"struct.std::_Vector_base<int, std::allocator<int> >::_Vector_impl_data", %"struct.std::_Vector_base<int, std::allocator<int> >::_Vector_impl_data"* %62, i32 0, i32 2
  %64 = load i32*, i32** %63, align 8
  %65 = load i32*, i32** %8, align 8
  %66 = ptrtoint i32* %64 to i64
  %67 = ptrtoint i32* %65 to i64
  %68 = sub i64 %66, %67
  %69 = sdiv exact i64 %68, 4
  call void @_ZNSt12_Vector_baseIiSaIiEE13_M_deallocateEPim(%"struct.std::_Vector_base"* %58, i32* %59, i64 %69)
  %70 = load i32*, i32** %12, align 8
  %71 = bitcast %"class.std::vector"* %15 to %"struct.std::_Vector_base"*
  %72 = getelementptr inbounds %"struct.std::_Vector_base", %"struct.std::_Vector_base"* %71, i32 0, i32 0
  %73 = bitcast %"struct.std::_Vector_base<int, std::allocator<int> >::_Vector_impl"* %72 to %"struct.std::_Vector_base<int, std::allocator<int> >::_Vector_impl_data"*
  %74 = getelementptr inbounds %"struct.std::_Vector_base<int, std::allocator<int> >::_Vector_impl_data", %"struct.std::_Vector_base<int, std::allocator<int> >::_Vector_impl_data"* %73, i32 0, i32 0
  store i32* %70, i32** %74, align 8
  %75 = load i32*, i32** %13, align 8
  %76 = bitcast %"class.std::vector"* %15 to %"struct.std::_Vector_base"*
  %77 = getelementptr inbounds %"struct.std::_Vector_base", %"struct.std::_Vector_base"* %76, i32 0, i32 0
  %78 = bitcast %"struct.std::_Vector_base<int, std::allocator<int> >::_Vector_impl"* %77 to %"struct.std::_Vector_base<int, std::allocator<int> >::_Vector_impl_data"*
  %79 = getelementptr inbounds %"struct.std::_Vector_base<int, std::allocator<int> >::_Vector_impl_data", %"struct.std::_Vector_base<int, std::allocator<int> >::_Vector_impl_data"* %78, i32 0, i32 1
  store i32* %75, i32** %79, align 8
  %80 = load i32*, i32** %12, align 8
  %81 = load i64, i64* %7, align 8
  %82 = getelementptr inbounds i32, i32* %80, i64 %81
  %83 = bitcast %"class.std::vector"* %15 to %"struct.std::_Vector_base"*
  %84 = getelementptr inbounds %"struct.std::_Vector_base", %"struct.std::_Vector_base"* %83, i32 0, i32 0
  %85 = bitcast %"struct.std::_Vector_base<int, std::allocator<int> >::_Vector_impl"* %84 to %"struct.std::_Vector_base<int, std::allocator<int> >::_Vector_impl_data"*
  %86 = getelementptr inbounds %"struct.std::_Vector_base<int, std::allocator<int> >::_Vector_impl_data", %"struct.std::_Vector_base<int, std::allocator<int> >::_Vector_impl_data"* %85, i32 0, i32 2
  store i32* %82, i32** %86, align 8
  ret void
}

; Function Attrs: noinline nounwind optnone uwtable
define linkonce_odr dso_local void @_ZN9__gnu_cxx13new_allocatorIiE9constructIiJiEEEvPT_DpOT0_(%"class.__gnu_cxx::new_allocator"* %0, i32* %1, i32* dereferenceable(4) %2) #6 comdat align 2 {
  %4 = alloca %"class.__gnu_cxx::new_allocator"*, align 8
  %5 = alloca i32*, align 8
  %6 = alloca i32*, align 8
  store %"class.__gnu_cxx::new_allocator"* %0, %"class.__gnu_cxx::new_allocator"** %4, align 8
  store i32* %1, i32** %5, align 8
  store i32* %2, i32** %6, align 8
  %7 = load %"class.__gnu_cxx::new_allocator"*, %"class.__gnu_cxx::new_allocator"** %4, align 8
  %8 = load i32*, i32** %5, align 8
  %9 = bitcast i32* %8 to i8*
  %10 = bitcast i8* %9 to i32*
  %11 = load i32*, i32** %6, align 8
  %12 = call dereferenceable(4) i32* @_ZSt7forwardIiEOT_RNSt16remove_referenceIS0_E4typeE(i32* dereferenceable(4) %11) #3
  %13 = load i32, i32* %12, align 4
  store i32 %13, i32* %10, align 4
  ret void
}

; Function Attrs: noinline uwtable
define internal void @_GLOBAL__sub_I_main.cpp() #0 section ".text.startup" {
  call void @__cxx_global_var_init()
  ret void
}

attributes #0 = { noinline uwtable "correctly-rounded-divide-sqrt-fp-math"="false" "disable-tail-calls"="false" "frame-pointer"="all" "less-precise-fpmad"="false" "min-legal-vector-width"="0" "no-infs-fp-math"="false" "no-jump-tables"="false" "no-nans-fp-math"="false" "no-signed-zeros-fp-math"="false" "no-trapping-math"="false" "stack-protector-buffer-size"="8" "target-cpu"="x86-64" "target-features"="+cx8,+fxsr,+mmx,+sse,+sse2,+x87" "unsafe-fp-math"="false" "use-soft-float"="false" }
attributes #1 = { "correctly-rounded-divide-sqrt-fp-math"="false" "disable-tail-calls"="false" "frame-pointer"="all" "less-precise-fpmad"="false" "no-infs-fp-math"="false" "no-nans-fp-math"="false" "no-signed-zeros-fp-math"="false" "no-trapping-math"="false" "stack-protector-buffer-size"="8" "target-cpu"="x86-64" "target-features"="+cx8,+fxsr,+mmx,+sse,+sse2,+x87" "unsafe-fp-math"="false" "use-soft-float"="false" }
attributes #2 = { nounwind "correctly-rounded-divide-sqrt-fp-math"="false" "disable-tail-calls"="false" "frame-pointer"="all" "less-precise-fpmad"="false" "no-infs-fp-math"="false" "no-nans-fp-math"="false" "no-signed-zeros-fp-math"="false" "no-trapping-math"="false" "stack-protector-buffer-size"="8" "target-cpu"="x86-64" "target-features"="+cx8,+fxsr,+mmx,+sse,+sse2,+x87" "unsafe-fp-math"="false" "use-soft-float"="false" }
attributes #3 = { nounwind }
attributes #4 = { noinline norecurse optnone uwtable "correctly-rounded-divide-sqrt-fp-math"="false" "disable-tail-calls"="false" "frame-pointer"="all" "less-precise-fpmad"="false" "min-legal-vector-width"="0" "no-infs-fp-math"="false" "no-jump-tables"="false" "no-nans-fp-math"="false" "no-signed-zeros-fp-math"="false" "no-trapping-math"="false" "stack-protector-buffer-size"="8" "target-cpu"="x86-64" "target-features"="+cx8,+fxsr,+mmx,+sse,+sse2,+x87" "unsafe-fp-math"="false" "use-soft-float"="false" }
attributes #5 = { argmemonly nounwind willreturn }
attributes #6 = { noinline nounwind optnone uwtable "correctly-rounded-divide-sqrt-fp-math"="false" "disable-tail-calls"="false" "frame-pointer"="all" "less-precise-fpmad"="false" "min-legal-vector-width"="0" "no-infs-fp-math"="false" "no-jump-tables"="false" "no-nans-fp-math"="false" "no-signed-zeros-fp-math"="false" "no-trapping-math"="false" "stack-protector-buffer-size"="8" "target-cpu"="x86-64" "target-features"="+cx8,+fxsr,+mmx,+sse,+sse2,+x87" "unsafe-fp-math"="false" "use-soft-float"="false" }
attributes #7 = { noinline optnone uwtable "correctly-rounded-divide-sqrt-fp-math"="false" "disable-tail-calls"="false" "frame-pointer"="all" "less-precise-fpmad"="false" "min-legal-vector-width"="0" "no-infs-fp-math"="false" "no-jump-tables"="false" "no-nans-fp-math"="false" "no-signed-zeros-fp-math"="false" "no-trapping-math"="false" "stack-protector-buffer-size"="8" "target-cpu"="x86-64" "target-features"="+cx8,+fxsr,+mmx,+sse,+sse2,+x87" "unsafe-fp-math"="false" "use-soft-float"="false" }
attributes #8 = { noreturn "correctly-rounded-divide-sqrt-fp-math"="false" "disable-tail-calls"="false" "frame-pointer"="all" "less-precise-fpmad"="false" "no-infs-fp-math"="false" "no-nans-fp-math"="false" "no-signed-zeros-fp-math"="false" "no-trapping-math"="false" "stack-protector-buffer-size"="8" "target-cpu"="x86-64" "target-features"="+cx8,+fxsr,+mmx,+sse,+sse2,+x87" "unsafe-fp-math"="false" "use-soft-float"="false" }
attributes #9 = { nobuiltin "correctly-rounded-divide-sqrt-fp-math"="false" "disable-tail-calls"="false" "frame-pointer"="all" "less-precise-fpmad"="false" "no-infs-fp-math"="false" "no-nans-fp-math"="false" "no-signed-zeros-fp-math"="false" "no-trapping-math"="false" "stack-protector-buffer-size"="8" "target-cpu"="x86-64" "target-features"="+cx8,+fxsr,+mmx,+sse,+sse2,+x87" "unsafe-fp-math"="false" "use-soft-float"="false" }
attributes #10 = { noinline noreturn nounwind }
attributes #11 = { nobuiltin nounwind "correctly-rounded-divide-sqrt-fp-math"="false" "disable-tail-calls"="false" "frame-pointer"="all" "less-precise-fpmad"="false" "no-infs-fp-math"="false" "no-nans-fp-math"="false" "no-signed-zeros-fp-math"="false" "no-trapping-math"="false" "stack-protector-buffer-size"="8" "target-cpu"="x86-64" "target-features"="+cx8,+fxsr,+mmx,+sse,+sse2,+x87" "unsafe-fp-math"="false" "use-soft-float"="false" }
attributes #12 = { noreturn nounwind }
attributes #13 = { noreturn }

!llvm.module.flags = !{!0}
!llvm.ident = !{!1}

!0 = !{i32 1, !"wchar_size", i32 4}
!1 = !{!"clang version 10.0.0-4ubuntu1 "}
